(i__main__
Corridor_list
p0
(dp1
S'corridors'
p2
(lp3
(i__main__
Corridor
p4
(dp5
S'reward'
p6
S'None'
p7
sS'name'
p8
S'grey'
p9
sS'end_image'
p10
S'grey_end_wall.png'
p11
sS'left_image'
p12
S'grey_wall.png'
p13
sS'reward_zone_starts'
p14
cnumpy.core.multiarray
_reconstruct
p15
(cnumpy
ndarray
p16
(I0
tp17
S'b'
p18
tp19
Rp20
(I1
(I0
tp21
cnumpy
dtype
p22
(S'f8'
p23
I0
I1
tp24
Rp25
(I3
S'<'
p26
NNNI-1
I-1
I0
tp27
bI00
S''
p28
tp29
bsS'ceiling_image'
p30
S'grey_floor_ceiling.png'
p31
sS'reward_zone_ends'
p32
g15
(g16
(I0
tp33
g18
tp34
Rp35
(I1
(I0
tp36
g25
I00
g28
tp37
bsS'N_zones'
p38
I0
sS'floor_image'
p39
g31
sS'right_image'
p40
g13
sba(i__main__
Corridor
p41
(dp42
g6
S'Right'
p43
sg8
S'9_cheese'
p44
sg10
S'black_end_wall.png'
p45
sg12
S'RN_9_cheese_left.png'
p46
sg14
g15
(g16
(I0
tp47
g18
tp48
Rp49
(I1
(I9
tp50
g25
I00
S'"""""\xa2\xb2?\xbc\xbb\xbb\xbb\xbb{\xc7?33333\xd3\xd2?\x88\x88\x88\x88\x88\xe8\xd9?\xef\xee\xee\xee\xee~\xe0?\x9a\x99\x99\x99\x99\t\xe4?EDDDD\x94\xe7?\xef\xee\xee\xee\xee\x1e\xeb?\x9a\x99\x99\x99\x99\xa9\xee?'
p51
tp52
bsg30
S'floor_ceiling.png'
p53
sg32
g15
(g16
(I0
tp54
g18
tp55
Rp56
(I1
(I9
tp57
g25
I00
S'\xbc\xbb\xbb\xbb\xbb\x1b\xc3?33333\xa3\xd0?\x88\x88\x88\x88\x88\xb8\xd7?\xdd\xdd\xdd\xdd\xdd\xcd\xde?\x9a\x99\x99\x99\x99\xf1\xe2?EDDDD|\xe6?\xf0\xee\xee\xee\xee\x06\xea?\x9a\x99\x99\x99\x99\x91\xed?\x00\x00\x00\x00\x00\x00\xf0?'
p58
tp59
bsg38
I9
sg39
g53
sg40
S'RN_9_cheese_right.png'
p60
sba(i__main__
Corridor
p61
(dp62
g6
g43
sg8
S'7_cheese_a'
p63
sg10
S'black_end_wall.png'
p64
sg12
S'RN_7_cheese_left_a.png'
p65
sg14
g15
(g16
(I0
tp66
g18
tp67
Rp68
(I1
(I7
tp69
g25
I00
S'"""""\xa2\xb2?fffff&\xce?\x88\x88\x88\x88\x88h\xd7?\xde\xdd\xdd\xdd\xdd\xbd\xdf?\xef\xee\xee\xee\xee\x1e\xe6?\x9a\x99\x99\x99\x99I\xea?\xef\xee\xee\xee\xee>\xee?'
p70
tp71
bsg30
S'floor_ceiling.png'
p72
sg32
g15
(g16
(I0
tp73
g18
tp74
Rp75
(I1
(I7
tp76
g25
I00
S'\xbc\xbb\xbb\xbb\xbb\x1b\xc3?\x88\x88\x88\x88\x88\xf8\xd3?\xdd\xdd\xdd\xdd\xddM\xdc?\x9a\x99\x99\x99\x99Q\xe2?\x9a\x99\x99\x99\x99\x91\xe8?EDDDD\xbc\xec?\x00\x00\x00\x00\x00\x00\xf0?'
p77
tp78
bsg38
I7
sg39
g72
sg40
S'RN_7_cheese_right_a.png'
p79
sba(i__main__
Corridor
p80
(dp81
g6
g43
sg8
S'7_cheese_b'
p82
sg10
S'black_end_wall.png'
p83
sg12
S'RN_7_cheese_left_b.png'
p84
sg14
g15
(g16
(I0
tp85
g18
tp86
Rp87
(I1
(I7
tp88
g25
I00
S'"""""\xa2\xb2?\xbc\xbb\xbb\xbb\xbb\xfb\xc9?33333S\xd5?\x88\x88\x88\x88\x88\xa8\xdd?\xef\xee\xee\xee\xee\xfe\xe2?\x9a\x99\x99\x99\x99)\xe7?\xef\xee\xee\xee\xee>\xee?'
p89
tp90
bsg30
S'floor_ceiling.png'
p91
sg32
g15
(g16
(I0
tp92
g18
tp93
Rp94
(I1
(I7
tp95
g25
I00
S'\xbc\xbb\xbb\xbb\xbb\x1b\xc3?33333\xe3\xd1?\x88\x88\x88\x88\x888\xda?\xef\xee\xee\xee\xeeF\xe1?\x9a\x99\x99\x99\x99q\xe5?EDDDD\x9c\xe9?\x00\x00\x00\x00\x00\x00\xf0?'
p96
tp97
bsg38
I7
sg39
g91
sg40
S'RN_7_cheese_right_b.png'
p98
sba(i__main__
Corridor
p99
(dp100
g6
g43
sg8
S'7_cheese_c'
p101
sg10
S'black_end_wall.png'
p102
sg12
S'RN_7_cheese_left_c.png'
p103
sg14
g15
(g16
(I0
tp104
g18
tp105
Rp106
(I1
(I7
tp107
g25
I00
S'xwwww\xf7\xba?\xde\xdd\xdd\xdd\xdd=\xd3?33333\x93\xdb?\x9a\x99\x99\x99\x99A\xe3?\xef\xee\xee\xee\xee\xe6\xe6?EDDDD\x8c\xea?\xef\xee\xee\xee\xee>\xee?'
p108
tp109
bsg30
S'floor_ceiling.png'
p110
sg32
g15
(g16
(I0
tp111
g18
tp112
Rp113
(I1
(I7
tp114
g25
I00
S'fffffF\xc7?33333#\xd8?DDDDD<\xe0?EDDDD\xb4\xe5?\x9a\x99\x99\x99\x99Y\xe9?\xf0\xee\xee\xee\xee\xfe\xec?\x00\x00\x00\x00\x00\x00\xf0?'
p115
tp116
bsg38
I7
sg39
g110
sg40
S'RN_7_cheese_right_c.png'
p117
sba(i__main__
Corridor
p118
(dp119
g6
g43
sg8
S'5_cheese_a'
p120
sg10
S'black_end_wall.png'
p121
sg12
S'RN_5_cheese_left_a.png'
p122
sg14
g15
(g16
(I0
tp123
g18
tp124
Rp125
(I1
(I5
tp126
g25
I00
S'\xbc\xbb\xbb\xbb\xbb\xfb\xc9?33333S\xd5?\x88\x88\x88\x88\x88\xa8\xdd?\x9a\x99\x99\x99\x99)\xe7?\xef\xee\xee\xee\xee>\xee?'
p127
tp128
bsg30
S'floor_ceiling.png'
p129
sg32
g15
(g16
(I0
tp130
g18
tp131
Rp132
(I1
(I5
tp133
g25
I00
S'33333\xe3\xd1?\x88\x88\x88\x88\x888\xda?\xef\xee\xee\xee\xeeF\xe1?EDDDD\x9c\xe9?\x00\x00\x00\x00\x00\x00\xf0?'
p134
tp135
bsg38
I5
sg39
g129
sg40
S'RN_5_cheese_right_a.png'
p136
sba(i__main__
Corridor
p137
(dp138
g6
g43
sg8
S'5_cheese_b'
p139
sg10
S'black_end_wall.png'
p140
sg12
S'RN_5_cheese_left_b.png'
p141
sg14
g15
(g16
(I0
tp142
g18
tp143
Rp144
(I1
(I5
tp145
g25
I00
S'"""""\xa2\xb2?\x89\x88\x88\x88\x88(\xd1?EDDDD\xf4\xe1?EDDDD\xc4\xe9?\xef\xee\xee\xee\xee>\xee?'
p146
tp147
bsg30
S'floor_ceiling.png'
p148
sg32
g15
(g16
(I0
tp149
g18
tp150
Rp151
(I1
(I5
tp152
g25
I00
S'\xbc\xbb\xbb\xbb\xbb\x1b\xc3?\xde\xdd\xdd\xdd\xdd\r\xd6?\xf0\xee\xee\xee\xeef\xe4?\xf0\xee\xee\xee\xee6\xec?\x00\x00\x00\x00\x00\x00\xf0?'
p153
tp154
bsg38
I5
sg39
g148
sg40
S'RN_5_cheese_right_b.png'
p155
sba(i__main__
Corridor
p156
(dp157
g6
g43
sg8
S'5_cheese_c'
p158
sg10
S'black_end_wall.png'
p159
sg12
S'RN_5_cheese_left_c.png'
p160
sg14
g15
(g16
(I0
tp161
g18
tp162
Rp163
(I1
(I5
tp164
g25
I00
S'fffff&\xce?\xde\xdd\xdd\xdd\xdd\xbd\xdf?\xef\xee\xee\xee\xee\x1e\xe6?\x9a\x99\x99\x99\x99I\xea?\xef\xee\xee\xee\xee>\xee?'
p165
tp166
bsg30
S'floor_ceiling.png'
p167
sg32
g15
(g16
(I0
tp168
g18
tp169
Rp170
(I1
(I5
tp171
g25
I00
S'\x88\x88\x88\x88\x88\xf8\xd3?\x9a\x99\x99\x99\x99Q\xe2?\x9a\x99\x99\x99\x99\x91\xe8?EDDDD\xbc\xec?\x00\x00\x00\x00\x00\x00\xf0?'
p172
tp173
bsg38
I5
sg39
g167
sg40
S'RN_5_cheese_right_c.png'
p174
sba(i__main__
Corridor
p175
(dp176
g6
g43
sg8
S'3_cheese_a'
p177
sg10
S'black_end_wall.png'
p178
sg12
S'RN_3_cheese_left_a.png'
p179
sg14
g15
(g16
(I0
tp180
g18
tp181
Rp182
(I1
(I3
tp183
g25
I00
S'fffff&\xce?\xde\xdd\xdd\xdd\xdd}\xd9?\x9a\x99\x99\x99\x99\xf1\xec?'
p184
tp185
bsg30
S'floor_ceiling.png'
p186
sg32
g15
(g16
(I0
tp187
g18
tp188
Rp189
(I1
(I3
tp190
g25
I00
S'\x88\x88\x88\x88\x88\xf8\xd3?33333c\xde?EDDDDd\xef?'
p191
tp192
bsg38
I3
sg39
g186
sg40
S'RN_3_cheese_right_a.png'
p193
sba(i__main__
Corridor
p194
(dp195
g6
g43
sg8
S'3_cheese_b'
p196
sg10
S'black_end_wall.png'
p197
sg12
S'RN_3_cheese_left_b.png'
p198
sg14
g15
(g16
(I0
tp199
g18
tp200
Rp201
(I1
(I3
tp202
g25
I00
S'\xbc\xbb\xbb\xbb\xbb\xfb\xc9?\xef\xee\xee\xee\xee\x8e\xe4?\x9a\x99\x99\x99\x99\xf1\xec?'
p203
tp204
bsg30
S'floor_ceiling.png'
p205
sg32
g15
(g16
(I0
tp206
g18
tp207
Rp208
(I1
(I3
tp209
g25
I00
S'33333\xe3\xd1?\x9a\x99\x99\x99\x99\x01\xe7?EDDDDd\xef?'
p210
tp211
bsg38
I3
sg39
g205
sg40
S'RN_3_cheese_right_b.png'
p212
sba(i__main__
Corridor
p213
(dp214
g6
g43
sg8
S'3_cheese_c'
p215
sg10
S'black_end_wall.png'
p216
sg12
S'RN_3_cheese_left_c.png'
p217
sg14
g15
(g16
(I0
tp218
g18
tp219
Rp220
(I1
(I3
tp221
g25
I00
S'33333S\xd5?\x9a\x99\x99\x99\x99)\xe7?\x9a\x99\x99\x99\x99\xf1\xec?'
p222
tp223
bsg30
S'floor_ceiling.png'
p224
sg32
g15
(g16
(I0
tp225
g18
tp226
Rp227
(I1
(I3
tp228
g25
I00
S'\x88\x88\x88\x88\x888\xda?EDDDD\x9c\xe9?EDDDDd\xef?'
p229
tp230
bsg38
I3
sg39
g224
sg40
S'RN_3_cheese_right_c.png'
p231
sba(i__main__
Corridor
p232
(dp233
g6
g43
sg8
S'1_cheese'
p234
sg10
S'black_end_wall.png'
p235
sg12
S'RN_1_cheese_left.png'
p236
sg14
g15
(g16
(I0
tp237
g18
tp238
Rp239
(I1
(I1
tp240
g25
I00
S'\x9a\x99\x99\x99\x99\xf1\xec?'
p241
tp242
bsg30
S'floor_ceiling.png'
p243
sg32
g15
(g16
(I0
tp244
g18
tp245
Rp246
(I1
(I1
tp247
g25
I00
S'EDDDDd\xef?'
p248
tp249
bsg38
I1
sg39
g243
sg40
S'RN_1_cheese_right.png'
p250
sba(i__main__
Corridor
p251
(dp252
g6
S'Left'
p253
sg8
S'purple_striped_left'
p254
sg10
S'black_end_wall.png'
p255
sg12
S'RN_wall_striped_purple_left_002.png'
p256
sg14
g15
(g16
(I0
tp257
g18
tp258
Rp259
(I1
(I1
tp260
g25
I00
S'\x9a\x99\x99\x99\x99\xf1\xec?'
p261
tp262
bsg30
S'floor_ceiling.png'
p263
sg32
g15
(g16
(I0
tp264
g18
tp265
Rp266
(I1
(I1
tp267
g25
I00
S'EDDDDd\xef?'
p268
tp269
bsg38
I1
sg39
g263
sg40
S'RN_wall_striped_purple_right_002.png'
p270
sba(i__main__
Corridor
p271
(dp272
g6
g43
sg8
S'purple_striped_right'
p273
sg10
S'black_end_wall.png'
p274
sg12
S'RN_wall_striped_purple_left_002.png'
p275
sg14
g15
(g16
(I0
tp276
g18
tp277
Rp278
(I1
(I1
tp279
g25
I00
S'\x9a\x99\x99\x99\x99\xf1\xec?'
p280
tp281
bsg30
S'floor_ceiling.png'
p282
sg32
g15
(g16
(I0
tp283
g18
tp284
Rp285
(I1
(I1
tp286
g25
I00
S'EDDDDd\xef?'
p287
tp288
bsg38
I1
sg39
g282
sg40
S'RN_wall_striped_purple_right_002.png'
p289
sba(i__main__
Corridor
p290
(dp291
g6
g253
sg8
S'purple_squared_left'
p292
sg10
S'black_end_wall.png'
p293
sg12
S'RN_wall_squared_purple_left_002.png'
p294
sg14
g15
(g16
(I0
tp295
g18
tp296
Rp297
(I1
(I1
tp298
g25
I00
S'\x9a\x99\x99\x99\x99\xf1\xec?'
p299
tp300
bsg30
S'floor_ceiling.png'
p301
sg32
g15
(g16
(I0
tp302
g18
tp303
Rp304
(I1
(I1
tp305
g25
I00
S'EDDDDd\xef?'
p306
tp307
bsg38
I1
sg39
g301
sg40
S'RN_wall_squared_purple_right_002.png'
p308
sba(i__main__
Corridor
p309
(dp310
g6
g43
sg8
S'purple_squared_right'
p311
sg10
S'black_end_wall.png'
p312
sg12
S'RN_wall_squared_purple_left_002.png'
p313
sg14
g15
(g16
(I0
tp314
g18
tp315
Rp316
(I1
(I1
tp317
g25
I00
S'\x9a\x99\x99\x99\x99\xf1\xec?'
p318
tp319
bsg30
S'floor_ceiling.png'
p320
sg32
g15
(g16
(I0
tp321
g18
tp322
Rp323
(I1
(I1
tp324
g25
I00
S'EDDDDd\xef?'
p325
tp326
bsg38
I1
sg39
g320
sg40
S'RN_wall_squared_purple_right_002.png'
p327
sba(i__main__
Corridor
p328
(dp329
g6
g253
sg8
S'green_striped_left'
p330
sg10
S'black_end_wall.png'
p331
sg12
S'RN_wall_striped_green_left_002.png'
p332
sg14
g15
(g16
(I0
tp333
g18
tp334
Rp335
(I1
(I1
tp336
g25
I00
S'\x9a\x99\x99\x99\x99\xf1\xec?'
p337
tp338
bsg30
S'floor_ceiling.png'
p339
sg32
g15
(g16
(I0
tp340
g18
tp341
Rp342
(I1
(I1
tp343
g25
I00
S'EDDDDd\xef?'
p344
tp345
bsg38
I1
sg39
g339
sg40
S'RN_wall_striped_green_right_002.png'
p346
sba(i__main__
Corridor
p347
(dp348
g6
g43
sg8
S'green_striped_right'
p349
sg10
S'black_end_wall.png'
p350
sg12
S'RN_wall_striped_green_left_002.png'
p351
sg14
g15
(g16
(I0
tp352
g18
tp353
Rp354
(I1
(I1
tp355
g25
I00
S'\x9a\x99\x99\x99\x99\xf1\xec?'
p356
tp357
bsg30
S'floor_ceiling.png'
p358
sg32
g15
(g16
(I0
tp359
g18
tp360
Rp361
(I1
(I1
tp362
g25
I00
S'EDDDDd\xef?'
p363
tp364
bsg38
I1
sg39
g358
sg40
S'RN_wall_striped_green_right_002.png'
p365
sba(i__main__
Corridor
p366
(dp367
g6
g253
sg8
S'green_squared_left'
p368
sg10
S'black_end_wall.png'
p369
sg12
S'RN_wall_squared_green_left_002.png'
p370
sg14
g15
(g16
(I0
tp371
g18
tp372
Rp373
(I1
(I1
tp374
g25
I00
S'\x9a\x99\x99\x99\x99\xf1\xec?'
p375
tp376
bsg30
S'floor_ceiling.png'
p377
sg32
g15
(g16
(I0
tp378
g18
tp379
Rp380
(I1
(I1
tp381
g25
I00
S'EDDDDd\xef?'
p382
tp383
bsg38
I1
sg39
g377
sg40
S'RN_wall_squared_green_right_002.png'
p384
sba(i__main__
Corridor
p385
(dp386
g6
g43
sg8
S'green_squared_right'
p387
sg10
S'black_end_wall.png'
p388
sg12
S'RN_wall_squared_green_left_002.png'
p389
sg14
g15
(g16
(I0
tp390
g18
tp391
Rp392
(I1
(I1
tp393
g25
I00
S'\x9a\x99\x99\x99\x99\xf1\xec?'
p394
tp395
bsg30
S'floor_ceiling.png'
p396
sg32
g15
(g16
(I0
tp397
g18
tp398
Rp399
(I1
(I1
tp400
g25
I00
S'EDDDDd\xef?'
p401
tp402
bsg38
I1
sg39
g396
sg40
S'RN_wall_squared_green_right_002.png'
p403
sbasS'image_path'
p404
S'./'
p405
sg8
S'contingency_learning'
p406
sS'num_VRs'
p407
I20
sb.