(i__main__
Stage_collection
p0
(dp1
S'stages'
p2
(lp3
(i__main__
Stage
p4
(dp5
S'corridors'
p6
(lp7
I0
asS'N_corridors'
p8
I1
sS'name'
p9
S'pretrain'
p10
sS'next_stage'
p11
(lp12
I1
asS'level'
p13
S'lick&run'
p14
sS'random'
p15
S'pseudo'
p16
sS'rule'
p17
g10
sS'substages'
p18
(lp19
S'a'
p20
asS'condition'
p21
S'either'
p22
sS'stage'
p23
I0
sba(i__main__
Stage
p24
(dp25
g6
(lp26
I1
aI2
aI3
aI4
aI5
aI6
aI7
aI8
aI9
aI10
aI11
asg8
I11
sg9
S'9 -> 1 lick zone'
p27
sg11
(lp28
I2
aI3
aI4
aI5
asg13
S'lick_zone'
p29
sg15
g16
sg17
S'Pavlovian'
p30
sg18
(lp31
I0
aI1
aI1
aI1
aI2
aI2
aI2
aI3
aI3
aI3
aI4
asg21
g22
sg23
I1
sba(i__main__
Stage
p32
(dp33
g6
(lp34
I12
aI17
asg8
I2
sg9
S'green_(striped)'
p35
sg11
(lp36
I6
aI7
aI8
aI9
asg13
S'color      '
p37
sg15
g16
sg17
S'correct'
p38
sg18
(lp39
g20
ag20
asg21
g38
sg23
I2
sba(i__main__
Stage
p40
(dp41
g6
(lp42
I13
aI16
asg8
I2
sg9
S'purple_(striped)'
p43
sg11
(lp44
I6
aI7
aI8
aI9
asg13
S'color      '
p45
sg15
g16
sg17
g38
sg18
(lp46
g20
ag20
asg21
g38
sg23
I3
sba(i__main__
Stage
p47
(dp48
g6
(lp49
I14
aI19
asg8
I2
sg9
S'green_(square)'
p50
sg11
(lp51
I6
aI7
aI8
aI9
asg13
S'color      '
p52
sg15
g16
sg17
g38
sg18
(lp53
g20
ag20
asg21
g38
sg23
I4
sba(i__main__
Stage
p54
(dp55
g6
(lp56
I15
aI18
asg8
I2
sg9
S'purple_(square)'
p57
sg11
(lp58
I6
aI7
aI8
aI9
asg13
S'color      '
p59
sg15
g16
sg17
g38
sg18
(lp60
g20
ag20
asg21
g38
sg23
I5
sba(i__main__
Stage
p61
(dp62
g6
(lp63
I12
aI15
asg8
I2
sg9
S'square_(purple)'
p64
sg11
(lp65
I13
aI15
asg13
S'pattern '
p66
sg15
g16
sg17
g38
sg18
(lp67
g20
ag20
asg21
g38
sg23
I6
sba(i__main__
Stage
p68
(dp69
g6
(lp70
I13
aI14
asg8
I2
sg9
S'stripe_(purple)'
p71
sg11
(lp72
I13
aI15
asg13
S'pattern '
p73
sg15
g16
sg17
g38
sg18
(lp74
g20
ag20
asg21
g38
sg23
I7
sba(i__main__
Stage
p75
(dp76
g6
(lp77
I16
aI19
asg8
I2
sg9
S'square_(green)'
p78
sg11
(lp79
I13
aI15
asg13
S'pattern '
p80
sg15
g16
sg17
g38
sg18
(lp81
g20
ag20
asg21
g38
sg23
I8
sba(i__main__
Stage
p82
(dp83
g6
(lp84
I17
aI18
asg8
I2
sg9
S'stripe_(green)'
p85
sg11
(lp86
I13
aI15
asg13
S'pattern '
p87
sg15
g16
sg17
g38
sg18
(lp88
g20
ag20
asg21
g38
sg23
I9
sba(i__main__
Stage
p89
(dp90
g6
(lp91
I12
aI14
aI17
aI19
asg8
I4
sg9
S'green'
p92
sg11
(lp93
I14
asg13
S'compound'
p94
sg15
g16
sg17
g38
sg18
(lp95
g20
ag20
ag20
ag20
asg21
S'both'
p96
sg23
I10
sba(i__main__
Stage
p97
(dp98
g6
(lp99
I13
aI15
aI16
aI18
asg8
I4
sg9
S'purple'
p100
sg11
(lp101
I15
asg13
g94
sg15
g16
sg17
g38
sg18
(lp102
g20
ag20
ag20
ag20
asg21
g96
sg23
I11
sba(i__main__
Stage
p103
(dp104
g6
(lp105
I12
aI15
aI16
aI19
asg8
I4
sg9
S'square'
p106
sg11
(lp107
I16
asg13
g94
sg15
g16
sg17
g38
sg18
(lp108
g20
ag20
ag20
ag20
asg21
g96
sg23
I12
sba(i__main__
Stage
p109
(dp110
g6
(lp111
I13
aI14
aI17
aI18
asg8
I4
sg9
S'stripe'
p112
sg11
(lp113
I17
asg13
g94
sg15
g16
sg17
g38
sg18
(lp114
g20
ag20
ag20
ag20
asg21
g96
sg23
I13
sba(i__main__
Stage
p115
(dp116
g6
(lp117
I12
aI14
aI17
aI19
aI13
aI15
aI16
aI18
asg8
I8
sg9
S'green -> purple'
p118
sg11
(lp119
I11
asg13
S'switching'
p120
sg15
S'10min switch'
p121
sg17
g38
sg18
(lp122
I0
aI0
aI0
aI0
aI1
aI1
aI1
aI1
asg21
g96
sg23
I14
sba(i__main__
Stage
p123
(dp124
g6
(lp125
I13
aI15
aI16
aI18
aI12
aI15
aI16
aI19
asg8
I8
sg9
S'purple -> square'
p126
sg11
(lp127
I12
asg13
g120
sg15
S'10min switch'
p128
sg17
g38
sg18
(lp129
I0
aI0
aI0
aI0
aI1
aI1
aI1
aI1
asg21
g96
sg23
I15
sba(i__main__
Stage
p130
(dp131
g6
(lp132
I12
aI15
aI16
aI19
aI13
aI14
aI17
aI18
asg8
I8
sg9
S'square -> stripe'
p133
sg11
(lp134
I13
asg13
g120
sg15
S'10min switch'
p135
sg17
g38
sg18
(lp136
I0
aI0
aI0
aI0
aI1
aI1
aI1
aI1
asg21
g96
sg23
I16
sba(i__main__
Stage
p137
(dp138
g6
(lp139
I13
aI14
aI17
aI18
aI12
aI14
aI17
aI19
asg8
I8
sg9
S'stripe -> green'
p140
sg11
(lp141
I10
asg13
g120
sg15
S'10min switch'
p142
sg17
g38
sg18
(lp143
I0
aI0
aI0
aI0
aI1
aI1
aI1
aI1
asg21
g96
sg23
I17
sbasS'num_stages'
p144
I18
sS'image_path'
p145
S'.'
p146
sg9
S'contingency_learning'
p147
sb.