(i__main__
Stage_collection
p0
(dp1
S'stages'
p2
(lp3
(i__main__
Stage
p4
(dp5
S'corridors'
p6
(lp7
I0
asS'N_corridors'
p8
I1
sS'name'
p9
S'pretrain'
p10
sS'next_stage'
p11
(lp12
I1
asS'level'
p13
S'lick&run'
p14
sS'random'
p15
S'pseudo'
p16
sS'rule'
p17
g10
sS'substages'
p18
(lp19
S'a'
p20
asS'condition'
p21
S'either'
p22
sS'stage'
p23
I0
sba(i__main__
Stage
p24
(dp25
g6
(lp26
I1
aI2
aI3
aI4
aI5
aI6
aI7
aI8
aI9
aI10
aI11
asg8
I11
sg9
S'9 -> 1 lick zone'
p27
sg11
(lp28
I2
aI3
aI4
aI5
asg13
S'lick_zone'
p29
sg15
g16
sg17
S'Pavlovian'
p30
sg18
(lp31
I0
aI1
aI1
aI1
aI2
aI2
aI2
aI3
aI3
aI3
aI4
asg21
g22
sg23
I1
sba(i__main__
Stage
p32
(dp33
g6
(lp34
I12
aI13
asg8
I2
sg9
S'base'
p35
sg11
(lp36
I3
asg13
g35
sg15
g16
sg17
S'correct'
p37
sg18
(lp38
g20
ag20
asg21
g37
sg23
I2
sba(i__main__
Stage
p39
(dp40
g6
(lp41
I12
aI13
aI14
aI15
aI16
aI17
aI18
asg8
I7
sg9
S'morph'
p42
sg11
(lp43
I2
asg13
g42
sg15
g16
sg17
g37
sg18
(lp44
g20
ag20
ag20
ag20
ag20
ag20
ag20
asg21
g37
sg23
I3
sbasS'num_stages'
p45
I4
sS'image_path'
p46
S'.'
p47
sg9
S'morphing'
p48
sb.