(i__main__
Corridor_list
p0
(dp1
S'corridors'
p2
(lp3
(i__main__
Corridor
p4
(dp5
S'reward_zone_starts'
p6
cnumpy.core.multiarray
_reconstruct
p7
(cnumpy
ndarray
p8
(I0
tp9
S'b'
p10
tp11
Rp12
(I1
(I0
tp13
cnumpy
dtype
p14
(S'f8'
p15
I0
I1
tp16
Rp17
(I3
S'<'
p18
NNNI-1
I-1
I0
tp19
bI00
S''
p20
tp21
bsS'reward'
p22
S'None'
p23
sS'name'
p24
S'grey'
p25
sS'end_image'
p26
S'grey_end_wall.png'
p27
sS'length'
p28
I7168
sS'left_image'
p29
S'grey_wall.png'
p30
sS'height'
p31
I768
sS'width'
p32
I1024
sS'ceiling_image'
p33
S'grey_floor_ceiling.png'
p34
sS'reward_zone_ends'
p35
g7
(g8
(I0
tp36
g10
tp37
Rp38
(I1
(I0
tp39
g17
I00
g20
tp40
bsS'N_zones'
p41
I0
sS'floor_image'
p42
g34
sS'right_image'
p43
g30
sba(i__main__
Corridor
p44
(dp45
g6
g7
(g8
(I0
tp46
g10
tp47
Rp48
(I1
(I9
tp49
g17
I00
S'UUUUUU\x97?UUUUU\x15\xc1?\x00\x00\x00\x00\x00@\xcf?UUUUU\xb5\xd6?\xab\xaa\xaa\xaa\xaa\xca\xdd?\x00\x00\x00\x00\x00p\xe2?\xab\xaa\xaa\xaa\xaa\xfa\xe5?UUUUU\x85\xe9?\x00\x00\x00\x00\x00\x10\xed?'
p50
tp51
bsg22
S'Right'
p52
sg24
S'9_cheese'
p53
sg26
S'black_end_wall.png'
p54
sg28
I7168
sg29
S'RN_9_cheese_left.png'
p55
sg31
I768
sg32
I1024
sg33
S'floor_ceiling.png'
p56
sg35
g7
(g8
(I0
tp57
g10
tp58
Rp59
(I1
(I9
tp60
g17
I00
S'\xaa\xaa\xaa\xaa\xaaj\xb9?\x00\x00\x00\x00\x00\xe0\xca?UUUUU\x85\xd4?\xaa\xaa\xaa\xaa\xaa\x9a\xdb?\x00\x00\x00\x00\x00X\xe1?\xab\xaa\xaa\xaa\xaa\xe2\xe4?VUUUUm\xe8?\x00\x00\x00\x00\x00\xf8\xeb?\xab\xaa\xaa\xaa\xaa\x82\xef?'
p61
tp62
bsg41
I9
sg42
g56
sg43
S'RN_9_cheese_right.png'
p63
sba(i__main__
Corridor
p64
(dp65
g6
g7
(g8
(I0
tp66
g10
tp67
Rp68
(I1
(I7
tp69
g17
I00
S'UUUUUU\x97?\x00\x00\x00\x00\x00\xc0\xc7?UUUUU5\xd4?\xab\xaa\xaa\xaa\xaa\x8a\xdc?UUUUU\x85\xe4?\x00\x00\x00\x00\x00\xb0\xe8?UUUUU\xa5\xec?'
p70
tp71
bsg22
g52
sg24
S'7_cheese_a'
p72
sg26
S'black_end_wall.png'
p73
sg28
I7168
sg29
S'RN_7_cheese_left_a.png'
p74
sg31
I768
sg32
I1024
sg33
S'floor_ceiling.png'
p75
sg35
g7
(g8
(I0
tp76
g10
tp77
Rp78
(I1
(I7
tp79
g17
I00
S'\xaa\xaa\xaa\xaa\xaaj\xb9?UUUUU\xc5\xd0?\xaa\xaa\xaa\xaa\xaa\x1a\xd9?\x00\x00\x00\x00\x00\xb8\xe0?\x00\x00\x00\x00\x00\xf8\xe6?\xab\xaa\xaa\xaa\xaa"\xeb?\x00\x00\x00\x00\x00\x18\xef?'
p80
tp81
bsg41
I7
sg42
g75
sg43
S'RN_7_cheese_right_a.png'
p82
sba(i__main__
Corridor
p83
(dp84
g6
g7
(g8
(I0
tp85
g10
tp86
Rp87
(I1
(I7
tp88
g17
I00
S'UUUUUU\x97?UUUUU\x95\xc3?\x00\x00\x00\x00\x00 \xd2?UUUUUu\xda?UUUUUe\xe1?\x00\x00\x00\x00\x00\x90\xe5?UUUUU\xa5\xec?'
p89
tp90
bsg22
g52
sg24
S'7_cheese_b'
p91
sg26
S'black_end_wall.png'
p92
sg28
I7168
sg29
S'RN_7_cheese_left_b.png'
p93
sg31
I768
sg32
I1024
sg33
S'floor_ceiling.png'
p94
sg35
g7
(g8
(I0
tp95
g10
tp96
Rp97
(I1
(I7
tp98
g17
I00
S'\xaa\xaa\xaa\xaa\xaaj\xb9?\x00\x00\x00\x00\x00`\xcd?UUUUU\x05\xd7?\xaa\xaa\xaa\xaa\xaaZ\xdf?\x00\x00\x00\x00\x00\xd8\xe3?\xab\xaa\xaa\xaa\xaa\x02\xe8?\x00\x00\x00\x00\x00\x18\xef?'
p99
tp100
bsg41
I7
sg42
g94
sg43
S'RN_7_cheese_right_b.png'
p101
sba(i__main__
Corridor
p102
(dp103
g6
g7
(g8
(I0
tp104
g10
tp105
Rp106
(I1
(I7
tp107
g17
I00
S'UUUUUU\xac?\xab\xaa\xaa\xaa\xaa\n\xd0?\x00\x00\x00\x00\x00`\xd8?\x00\x00\x00\x00\x00\xa8\xe1?UUUUUM\xe5?\xab\xaa\xaa\xaa\xaa\xf2\xe8?UUUUU\xa5\xec?'
p108
tp109
bsg22
g52
sg24
S'7_cheese_c'
p110
sg26
S'black_end_wall.png'
p111
sg28
I7168
sg29
S'RN_7_cheese_left_c.png'
p112
sg31
I768
sg32
I1024
sg33
S'floor_ceiling.png'
p113
sg35
g7
(g8
(I0
tp114
g10
tp115
Rp116
(I1
(I7
tp117
g17
I00
S'\x00\x00\x00\x00\x00\xe0\xc0?\x00\x00\x00\x00\x00\xf0\xd4?UUUUUE\xdd?\xab\xaa\xaa\xaa\xaa\x1a\xe4?\x00\x00\x00\x00\x00\xc0\xe7?VUUUUe\xeb?\x00\x00\x00\x00\x00\x18\xef?'
p118
tp119
bsg41
I7
sg42
g113
sg43
S'RN_7_cheese_right_c.png'
p120
sba(i__main__
Corridor
p121
(dp122
g6
g7
(g8
(I0
tp123
g10
tp124
Rp125
(I1
(I5
tp126
g17
I00
S'UUUUU\x95\xc3?\x00\x00\x00\x00\x00 \xd2?UUUUUu\xda?\x00\x00\x00\x00\x00\x90\xe5?UUUUU\xa5\xec?'
p127
tp128
bsg22
g52
sg24
S'5_cheese_a'
p129
sg26
S'black_end_wall.png'
p130
sg28
I7168
sg29
S'RN_5_cheese_left_a.png'
p131
sg31
I768
sg32
I1024
sg33
S'floor_ceiling.png'
p132
sg35
g7
(g8
(I0
tp133
g10
tp134
Rp135
(I1
(I5
tp136
g17
I00
S'\x00\x00\x00\x00\x00`\xcd?UUUUU\x05\xd7?\xaa\xaa\xaa\xaa\xaaZ\xdf?\xab\xaa\xaa\xaa\xaa\x02\xe8?\x00\x00\x00\x00\x00\x18\xef?'
p137
tp138
bsg41
I5
sg42
g132
sg43
S'RN_5_cheese_right_a.png'
p139
sba(i__main__
Corridor
p140
(dp141
g6
g7
(g8
(I0
tp142
g10
tp143
Rp144
(I1
(I5
tp145
g17
I00
S'UUUUUU\x97?\xab\xaa\xaa\xaa\xaa\xea\xcb?\xab\xaa\xaa\xaa\xaaZ\xe0?\xab\xaa\xaa\xaa\xaa*\xe8?UUUUU\xa5\xec?'
p146
tp147
bsg22
g52
sg24
S'5_cheese_b'
p148
sg26
S'black_end_wall.png'
p149
sg28
I7168
sg29
S'RN_5_cheese_left_b.png'
p150
sg31
I768
sg32
I1024
sg33
S'floor_ceiling.png'
p151
sg35
g7
(g8
(I0
tp152
g10
tp153
Rp154
(I1
(I5
tp155
g17
I00
S'\xaa\xaa\xaa\xaa\xaaj\xb9?\xab\xaa\xaa\xaa\xaa\xda\xd2?VUUUU\xcd\xe2?VUUUU\x9d\xea?\x00\x00\x00\x00\x00\x18\xef?'
p156
tp157
bsg41
I5
sg42
g151
sg43
S'RN_5_cheese_right_b.png'
p158
sba(i__main__
Corridor
p159
(dp160
g6
g7
(g8
(I0
tp161
g10
tp162
Rp163
(I1
(I5
tp164
g17
I00
S'\x00\x00\x00\x00\x00\xc0\xc7?\xab\xaa\xaa\xaa\xaa\x8a\xdc?UUUUU\x85\xe4?\x00\x00\x00\x00\x00\xb0\xe8?UUUUU\xa5\xec?'
p165
tp166
bsg22
g52
sg24
S'5_cheese_c'
p167
sg26
S'black_end_wall.png'
p168
sg28
I7168
sg29
S'RN_5_cheese_left_c.png'
p169
sg31
I768
sg32
I1024
sg33
S'floor_ceiling.png'
p170
sg35
g7
(g8
(I0
tp171
g10
tp172
Rp173
(I1
(I5
tp174
g17
I00
S'UUUUU\xc5\xd0?\x00\x00\x00\x00\x00\xb8\xe0?\x00\x00\x00\x00\x00\xf8\xe6?\xab\xaa\xaa\xaa\xaa"\xeb?\x00\x00\x00\x00\x00\x18\xef?'
p175
tp176
bsg41
I5
sg42
g170
sg43
S'RN_5_cheese_right_c.png'
p177
sba(i__main__
Corridor
p178
(dp179
g6
g7
(g8
(I0
tp180
g10
tp181
Rp182
(I1
(I3
tp183
g17
I00
S'\x00\x00\x00\x00\x00\xc0\xc7?\xab\xaa\xaa\xaa\xaaJ\xd6?\x00\x00\x00\x00\x00X\xeb?'
p184
tp185
bsg22
g52
sg24
S'3_cheese_a'
p186
sg26
S'black_end_wall.png'
p187
sg28
I7168
sg29
S'RN_3_cheese_left_a.png'
p188
sg31
I768
sg32
I1024
sg33
S'floor_ceiling.png'
p189
sg35
g7
(g8
(I0
tp190
g10
tp191
Rp192
(I1
(I3
tp193
g17
I00
S'UUUUU\xc5\xd0?\x00\x00\x00\x00\x000\xdb?\xab\xaa\xaa\xaa\xaa\xca\xed?'
p194
tp195
bsg41
I3
sg42
g189
sg43
S'RN_3_cheese_right_a.png'
p196
sba(i__main__
Corridor
p197
(dp198
g6
g7
(g8
(I0
tp199
g10
tp200
Rp201
(I1
(I3
tp202
g17
I00
S'UUUUU\x95\xc3?UUUUU\xf5\xe2?\x00\x00\x00\x00\x00X\xeb?'
p203
tp204
bsg22
g52
sg24
S'3_cheese_b'
p205
sg26
S'black_end_wall.png'
p206
sg28
I7168
sg29
S'RN_3_cheese_left_b.png'
p207
sg31
I768
sg32
I1024
sg33
S'floor_ceiling.png'
p208
sg35
g7
(g8
(I0
tp209
g10
tp210
Rp211
(I1
(I3
tp212
g17
I00
S'\x00\x00\x00\x00\x00`\xcd?\x00\x00\x00\x00\x00h\xe5?\xab\xaa\xaa\xaa\xaa\xca\xed?'
p213
tp214
bsg41
I3
sg42
g208
sg43
S'RN_3_cheese_right_b.png'
p215
sba(i__main__
Corridor
p216
(dp217
g6
g7
(g8
(I0
tp218
g10
tp219
Rp220
(I1
(I3
tp221
g17
I00
S'\x00\x00\x00\x00\x00 \xd2?\x00\x00\x00\x00\x00\x90\xe5?\x00\x00\x00\x00\x00X\xeb?'
p222
tp223
bsg22
g52
sg24
S'3_cheese_c'
p224
sg26
S'black_end_wall.png'
p225
sg28
I7168
sg29
S'RN_3_cheese_left_c.png'
p226
sg31
I768
sg32
I1024
sg33
S'floor_ceiling.png'
p227
sg35
g7
(g8
(I0
tp228
g10
tp229
Rp230
(I1
(I3
tp231
g17
I00
S'UUUUU\x05\xd7?\xab\xaa\xaa\xaa\xaa\x02\xe8?\xab\xaa\xaa\xaa\xaa\xca\xed?'
p232
tp233
bsg41
I3
sg42
g227
sg43
S'RN_3_cheese_right_c.png'
p234
sba(i__main__
Corridor
p235
(dp236
g6
g7
(g8
(I0
tp237
g10
tp238
Rp239
(I1
(I1
tp240
g17
I00
S'\x00\x00\x00\x00\x00X\xeb?'
p241
tp242
bsg22
g52
sg24
S'1_cheese'
p243
sg26
S'black_end_wall.png'
p244
sg28
I7168
sg29
S'RN_1_cheese_left.png'
p245
sg31
I768
sg32
I1024
sg33
S'floor_ceiling.png'
p246
sg35
g7
(g8
(I0
tp247
g10
tp248
Rp249
(I1
(I1
tp250
g17
I00
S'\xab\xaa\xaa\xaa\xaa\xca\xed?'
p251
tp252
bsg41
I1
sg42
g246
sg43
S'RN_1_cheese_right.png'
p253
sba(i__main__
Corridor
p254
(dp255
g6
g7
(g8
(I0
tp256
g10
tp257
Rp258
(I1
(I1
tp259
g17
I00
S'\x1c\xc7q\x1c\xc7\x91\xe6?'
p260
tp261
bsg22
g52
sg24
S'light_star'
p262
sg26
S'KataEnd.png'
p263
sg28
I10240
sg29
S'LightStarLeft.png'
p264
sg31
I768
sg32
I1024
sg33
S'Kata_ceiling.png'
p265
sg35
g7
(g8
(I0
tp266
g10
tp267
Rp268
(I1
(I1
tp269
g17
I00
S'\x1c\xc7q\x1c\xc7\xa9\xea?'
p270
tp271
bsg41
I1
sg42
S'Kata_floor.png'
p272
sg43
S'LightStarRight.png'
p273
sba(i__main__
Corridor
p274
(dp275
g6
g7
(g8
(I0
tp276
g10
tp277
Rp278
(I1
(I1
tp279
g17
I00
S'9\x8e\xe38\x8e\x83\xed?'
p280
tp281
bsg22
g52
sg24
S'dark_circle'
p282
sg26
S'KataEnd.png'
p283
sg28
I10240
sg29
S'DarkCircleLeft.png'
p284
sg31
I768
sg32
I1024
sg33
S'Kata_ceiling.png'
p285
sg35
g7
(g8
(I0
tp286
g10
tp287
Rp288
(I1
(I1
tp289
g17
I00
S'\x00\x00\x00\x00\x00\x00\xf0?'
p290
tp291
bsg41
I1
sg42
S'Kata_floor.png'
p292
sg43
S'DarkCircleRight.png'
p293
sba(i__main__
Corridor
p294
(dp295
g6
g7
(g8
(I0
tp296
g10
tp297
Rp298
(I1
(I1
tp299
g17
I00
S'9\x8e\xe38\x8e\x83\xed?'
p300
tp301
bsg22
S'Left'
p302
sg24
S'morph_1'
p303
sg26
S'KataEnd.png'
p304
sg28
I10240
sg29
S'5Star1CircleLeft.png'
p305
sg31
I768
sg32
I1024
sg33
S'Kata_ceiling.png'
p306
sg35
g7
(g8
(I0
tp307
g10
tp308
Rp309
(I1
(I1
tp310
g17
I00
S'\x00\x00\x00\x00\x00\x00\xf0?'
p311
tp312
bsg41
I1
sg42
S'Kata_floor.png'
p313
sg43
S'5Star1CircleRight.png'
p314
sba(i__main__
Corridor
p315
(dp316
g6
g7
(g8
(I0
tp317
g10
tp318
Rp319
(I1
(I1
tp320
g17
I00
S'9\x8e\xe38\x8e\x83\xed?'
p321
tp322
bsg22
g302
sg24
g303
sg26
S'KataEnd.png'
p323
sg28
I10240
sg29
S'4Star2CircleLeft.png'
p324
sg31
I768
sg32
I1024
sg33
S'Kata_ceiling.png'
p325
sg35
g7
(g8
(I0
tp326
g10
tp327
Rp328
(I1
(I1
tp329
g17
I00
S'\x00\x00\x00\x00\x00\x00\xf0?'
p330
tp331
bsg41
I1
sg42
S'Kata_floor.png'
p332
sg43
S'4Star2CircleRight.png'
p333
sba(i__main__
Corridor
p334
(dp335
g6
g7
(g8
(I0
tp336
g10
tp337
Rp338
(I1
(I1
tp339
g17
I00
S'9\x8e\xe38\x8e\x83\xed?'
p340
tp341
bsg22
g302
sg24
g303
sg26
S'KataEnd.png'
p342
sg28
I10240
sg29
S'3Star3CircleLeft.png'
p343
sg31
I768
sg32
I1024
sg33
S'Kata_ceiling.png'
p344
sg35
g7
(g8
(I0
tp345
g10
tp346
Rp347
(I1
(I1
tp348
g17
I00
S'\x00\x00\x00\x00\x00\x00\xf0?'
p349
tp350
bsg41
I1
sg42
S'Kata_floor.png'
p351
sg43
S'3Star3CircleRight.png'
p352
sba(i__main__
Corridor
p353
(dp354
g6
g7
(g8
(I0
tp355
g10
tp356
Rp357
(I1
(I1
tp358
g17
I00
S'9\x8e\xe38\x8e\x83\xed?'
p359
tp360
bsg22
g302
sg24
g303
sg26
S'KataEnd.png'
p361
sg28
I10240
sg29
S'2Star4CircleLeft.png'
p362
sg31
I768
sg32
I1024
sg33
S'Kata_ceiling.png'
p363
sg35
g7
(g8
(I0
tp364
g10
tp365
Rp366
(I1
(I1
tp367
g17
I00
S'\x00\x00\x00\x00\x00\x00\xf0?'
p368
tp369
bsg41
I1
sg42
S'Kata_floor.png'
p370
sg43
S'2Star4CircleRight.png'
p371
sba(i__main__
Corridor
p372
(dp373
g6
g7
(g8
(I0
tp374
g10
tp375
Rp376
(I1
(I1
tp377
g17
I00
S'9\x8e\xe38\x8e\x83\xed?'
p378
tp379
bsg22
g302
sg24
g303
sg26
S'KataEnd.png'
p380
sg28
I10240
sg29
S'1Star5CircleLeft.png'
p381
sg31
I768
sg32
I1024
sg33
S'Kata_ceiling.png'
p382
sg35
g7
(g8
(I0
tp383
g10
tp384
Rp385
(I1
(I1
tp386
g17
I00
S'\x00\x00\x00\x00\x00\x00\xf0?'
p387
tp388
bsg41
I1
sg42
S'Kata_floor.png'
p389
sg43
S'1Star5CircleRight.png'
p390
sbasS'image_path'
p391
S'./'
p392
sg24
S'morphing'
p393
sS'num_VRs'
p394
I19
sb.