(i__main__
Corridor_list
p0
(dp1
S'corridors'
p2
(lp3
(i__main__
Corridor
p4
(dp5
S'reward_zone_starts'
p6
cnumpy.core.multiarray
_reconstruct
p7
(cnumpy
ndarray
p8
(I0
tp9
S'b'
p10
tp11
Rp12
(I1
(I0
tp13
cnumpy
dtype
p14
(S'f8'
p15
I0
I1
tp16
Rp17
(I3
S'<'
p18
NNNI-1
I-1
I0
tp19
bI00
S''
p20
tp21
bsS'reward'
p22
S'None'
p23
sS'name'
p24
S'grey'
p25
sS'end_image'
p26
S'grey_end_wall.png'
p27
sS'length'
p28
I7168
sS'left_image'
p29
S'grey_wall.png'
p30
sS'height'
p31
I768
sS'width'
p32
I1024
sS'ceiling_image'
p33
S'grey_floor_ceiling.png'
p34
sS'reward_zone_ends'
p35
g7
(g8
(I0
tp36
g10
tp37
Rp38
(I1
(I0
tp39
g17
I00
g20
tp40
bsS'N_zones'
p41
I0
sS'floor_image'
p42
g34
sS'right_image'
p43
g30
sba(i__main__
Corridor
p44
(dp45
g6
g7
(g8
(I0
tp46
g10
tp47
Rp48
(I1
(I9
tp49
g17
I00
S'UUUUUU\x97?UUUUU\x15\xc1?\x00\x00\x00\x00\x00@\xcf?UUUUU\xb5\xd6?\xab\xaa\xaa\xaa\xaa\xca\xdd?\x00\x00\x00\x00\x00p\xe2?\xab\xaa\xaa\xaa\xaa\xfa\xe5?UUUUU\x85\xe9?\x00\x00\x00\x00\x00\x10\xed?'
p50
tp51
bsg22
S'Right'
p52
sg24
S'9_cheese'
p53
sg26
S'black_end_wall.png'
p54
sg28
I7168
sg29
S'RN_9_cheese_left.png'
p55
sg31
I768
sg32
I1024
sg33
S'floor_ceiling.png'
p56
sg35
g7
(g8
(I0
tp57
g10
tp58
Rp59
(I1
(I9
tp60
g17
I00
S'\xaa\xaa\xaa\xaa\xaaj\xb9?\x00\x00\x00\x00\x00\xe0\xca?UUUUU\x85\xd4?\xaa\xaa\xaa\xaa\xaa\x9a\xdb?\x00\x00\x00\x00\x00X\xe1?\xab\xaa\xaa\xaa\xaa\xe2\xe4?VUUUUm\xe8?\x00\x00\x00\x00\x00\xf8\xeb?\xab\xaa\xaa\xaa\xaa\x82\xef?'
p61
tp62
bsg41
I9
sg42
g56
sg43
S'RN_9_cheese_right.png'
p63
sba(i__main__
Corridor
p64
(dp65
g6
g7
(g8
(I0
tp66
g10
tp67
Rp68
(I1
(I7
tp69
g17
I00
S'UUUUUU\x97?\x00\x00\x00\x00\x00\xc0\xc7?UUUUU5\xd4?\xab\xaa\xaa\xaa\xaa\x8a\xdc?UUUUU\x85\xe4?\x00\x00\x00\x00\x00\xb0\xe8?UUUUU\xa5\xec?'
p70
tp71
bsg22
g52
sg24
S'7_cheese_a'
p72
sg26
S'black_end_wall.png'
p73
sg28
I7168
sg29
S'RN_7_cheese_left_a.png'
p74
sg31
I768
sg32
I1024
sg33
S'floor_ceiling.png'
p75
sg35
g7
(g8
(I0
tp76
g10
tp77
Rp78
(I1
(I7
tp79
g17
I00
S'\xaa\xaa\xaa\xaa\xaaj\xb9?UUUUU\xc5\xd0?\xaa\xaa\xaa\xaa\xaa\x1a\xd9?\x00\x00\x00\x00\x00\xb8\xe0?\x00\x00\x00\x00\x00\xf8\xe6?\xab\xaa\xaa\xaa\xaa"\xeb?\x00\x00\x00\x00\x00\x18\xef?'
p80
tp81
bsg41
I7
sg42
g75
sg43
S'RN_7_cheese_right_a.png'
p82
sba(i__main__
Corridor
p83
(dp84
g6
g7
(g8
(I0
tp85
g10
tp86
Rp87
(I1
(I7
tp88
g17
I00
S'UUUUUU\x97?UUUUU\x95\xc3?\x00\x00\x00\x00\x00 \xd2?UUUUUu\xda?UUUUUe\xe1?\x00\x00\x00\x00\x00\x90\xe5?UUUUU\xa5\xec?'
p89
tp90
bsg22
g52
sg24
S'7_cheese_b'
p91
sg26
S'black_end_wall.png'
p92
sg28
I7168
sg29
S'RN_7_cheese_left_b.png'
p93
sg31
I768
sg32
I1024
sg33
S'floor_ceiling.png'
p94
sg35
g7
(g8
(I0
tp95
g10
tp96
Rp97
(I1
(I7
tp98
g17
I00
S'\xaa\xaa\xaa\xaa\xaaj\xb9?\x00\x00\x00\x00\x00`\xcd?UUUUU\x05\xd7?\xaa\xaa\xaa\xaa\xaaZ\xdf?\x00\x00\x00\x00\x00\xd8\xe3?\xab\xaa\xaa\xaa\xaa\x02\xe8?\x00\x00\x00\x00\x00\x18\xef?'
p99
tp100
bsg41
I7
sg42
g94
sg43
S'RN_7_cheese_right_b.png'
p101
sba(i__main__
Corridor
p102
(dp103
g6
g7
(g8
(I0
tp104
g10
tp105
Rp106
(I1
(I7
tp107
g17
I00
S'UUUUUU\xac?\xab\xaa\xaa\xaa\xaa\n\xd0?\x00\x00\x00\x00\x00`\xd8?\x00\x00\x00\x00\x00\xa8\xe1?UUUUUM\xe5?\xab\xaa\xaa\xaa\xaa\xf2\xe8?UUUUU\xa5\xec?'
p108
tp109
bsg22
g52
sg24
S'7_cheese_c'
p110
sg26
S'black_end_wall.png'
p111
sg28
I7168
sg29
S'RN_7_cheese_left_c.png'
p112
sg31
I768
sg32
I1024
sg33
S'floor_ceiling.png'
p113
sg35
g7
(g8
(I0
tp114
g10
tp115
Rp116
(I1
(I7
tp117
g17
I00
S'\x00\x00\x00\x00\x00\xe0\xc0?\x00\x00\x00\x00\x00\xf0\xd4?UUUUUE\xdd?\xab\xaa\xaa\xaa\xaa\x1a\xe4?\x00\x00\x00\x00\x00\xc0\xe7?VUUUUe\xeb?\x00\x00\x00\x00\x00\x18\xef?'
p118
tp119
bsg41
I7
sg42
g113
sg43
S'RN_7_cheese_right_c.png'
p120
sba(i__main__
Corridor
p121
(dp122
g6
g7
(g8
(I0
tp123
g10
tp124
Rp125
(I1
(I5
tp126
g17
I00
S'UUUUU\x95\xc3?\x00\x00\x00\x00\x00 \xd2?UUUUUu\xda?\x00\x00\x00\x00\x00\x90\xe5?UUUUU\xa5\xec?'
p127
tp128
bsg22
g52
sg24
S'5_cheese_a'
p129
sg26
S'black_end_wall.png'
p130
sg28
I7168
sg29
S'RN_5_cheese_left_a.png'
p131
sg31
I768
sg32
I1024
sg33
S'floor_ceiling.png'
p132
sg35
g7
(g8
(I0
tp133
g10
tp134
Rp135
(I1
(I5
tp136
g17
I00
S'\x00\x00\x00\x00\x00`\xcd?UUUUU\x05\xd7?\xaa\xaa\xaa\xaa\xaaZ\xdf?\xab\xaa\xaa\xaa\xaa\x02\xe8?\x00\x00\x00\x00\x00\x18\xef?'
p137
tp138
bsg41
I5
sg42
g132
sg43
S'RN_5_cheese_right_a.png'
p139
sba(i__main__
Corridor
p140
(dp141
g6
g7
(g8
(I0
tp142
g10
tp143
Rp144
(I1
(I5
tp145
g17
I00
S'UUUUUU\x97?\xab\xaa\xaa\xaa\xaa\xea\xcb?\xab\xaa\xaa\xaa\xaaZ\xe0?\xab\xaa\xaa\xaa\xaa*\xe8?UUUUU\xa5\xec?'
p146
tp147
bsg22
g52
sg24
S'5_cheese_b'
p148
sg26
S'black_end_wall.png'
p149
sg28
I7168
sg29
S'RN_5_cheese_left_b.png'
p150
sg31
I768
sg32
I1024
sg33
S'floor_ceiling.png'
p151
sg35
g7
(g8
(I0
tp152
g10
tp153
Rp154
(I1
(I5
tp155
g17
I00
S'\xaa\xaa\xaa\xaa\xaaj\xb9?\xab\xaa\xaa\xaa\xaa\xda\xd2?VUUUU\xcd\xe2?VUUUU\x9d\xea?\x00\x00\x00\x00\x00\x18\xef?'
p156
tp157
bsg41
I5
sg42
g151
sg43
S'RN_5_cheese_right_b.png'
p158
sba(i__main__
Corridor
p159
(dp160
g6
g7
(g8
(I0
tp161
g10
tp162
Rp163
(I1
(I5
tp164
g17
I00
S'\x00\x00\x00\x00\x00\xc0\xc7?\xab\xaa\xaa\xaa\xaa\x8a\xdc?UUUUU\x85\xe4?\x00\x00\x00\x00\x00\xb0\xe8?UUUUU\xa5\xec?'
p165
tp166
bsg22
g52
sg24
S'5_cheese_c'
p167
sg26
S'black_end_wall.png'
p168
sg28
I7168
sg29
S'RN_5_cheese_left_c.png'
p169
sg31
I768
sg32
I1024
sg33
S'floor_ceiling.png'
p170
sg35
g7
(g8
(I0
tp171
g10
tp172
Rp173
(I1
(I5
tp174
g17
I00
S'UUUUU\xc5\xd0?\x00\x00\x00\x00\x00\xb8\xe0?\x00\x00\x00\x00\x00\xf8\xe6?\xab\xaa\xaa\xaa\xaa"\xeb?\x00\x00\x00\x00\x00\x18\xef?'
p175
tp176
bsg41
I5
sg42
g170
sg43
S'RN_5_cheese_right_c.png'
p177
sba(i__main__
Corridor
p178
(dp179
g6
g7
(g8
(I0
tp180
g10
tp181
Rp182
(I1
(I3
tp183
g17
I00
S'\x00\x00\x00\x00\x00\xc0\xc7?\xab\xaa\xaa\xaa\xaaJ\xd6?\x00\x00\x00\x00\x00X\xeb?'
p184
tp185
bsg22
g52
sg24
S'3_cheese_a'
p186
sg26
S'black_end_wall.png'
p187
sg28
I7168
sg29
S'RN_3_cheese_left_a.png'
p188
sg31
I768
sg32
I1024
sg33
S'floor_ceiling.png'
p189
sg35
g7
(g8
(I0
tp190
g10
tp191
Rp192
(I1
(I3
tp193
g17
I00
S'UUUUU\xc5\xd0?\x00\x00\x00\x00\x000\xdb?\xab\xaa\xaa\xaa\xaa\xca\xed?'
p194
tp195
bsg41
I3
sg42
g189
sg43
S'RN_3_cheese_right_a.png'
p196
sba(i__main__
Corridor
p197
(dp198
g6
g7
(g8
(I0
tp199
g10
tp200
Rp201
(I1
(I3
tp202
g17
I00
S'UUUUU\x95\xc3?UUUUU\xf5\xe2?\x00\x00\x00\x00\x00X\xeb?'
p203
tp204
bsg22
g52
sg24
S'3_cheese_b'
p205
sg26
S'black_end_wall.png'
p206
sg28
I7168
sg29
S'RN_3_cheese_left_b.png'
p207
sg31
I768
sg32
I1024
sg33
S'floor_ceiling.png'
p208
sg35
g7
(g8
(I0
tp209
g10
tp210
Rp211
(I1
(I3
tp212
g17
I00
S'\x00\x00\x00\x00\x00`\xcd?\x00\x00\x00\x00\x00h\xe5?\xab\xaa\xaa\xaa\xaa\xca\xed?'
p213
tp214
bsg41
I3
sg42
g208
sg43
S'RN_3_cheese_right_b.png'
p215
sba(i__main__
Corridor
p216
(dp217
g6
g7
(g8
(I0
tp218
g10
tp219
Rp220
(I1
(I3
tp221
g17
I00
S'\x00\x00\x00\x00\x00 \xd2?\x00\x00\x00\x00\x00\x90\xe5?\x00\x00\x00\x00\x00X\xeb?'
p222
tp223
bsg22
g52
sg24
S'3_cheese_c'
p224
sg26
S'black_end_wall.png'
p225
sg28
I7168
sg29
S'RN_3_cheese_left_c.png'
p226
sg31
I768
sg32
I1024
sg33
S'floor_ceiling.png'
p227
sg35
g7
(g8
(I0
tp228
g10
tp229
Rp230
(I1
(I3
tp231
g17
I00
S'UUUUU\x05\xd7?\xab\xaa\xaa\xaa\xaa\x02\xe8?\xab\xaa\xaa\xaa\xaa\xca\xed?'
p232
tp233
bsg41
I3
sg42
g227
sg43
S'RN_3_cheese_right_c.png'
p234
sba(i__main__
Corridor
p235
(dp236
g6
g7
(g8
(I0
tp237
g10
tp238
Rp239
(I1
(I1
tp240
g17
I00
S'\x00\x00\x00\x00\x00X\xeb?'
p241
tp242
bsg22
g52
sg24
S'1_cheese'
p243
sg26
S'black_end_wall.png'
p244
sg28
I7168
sg29
S'RN_1_cheese_left.png'
p245
sg31
I768
sg32
I1024
sg33
S'floor_ceiling.png'
p246
sg35
g7
(g8
(I0
tp247
g10
tp248
Rp249
(I1
(I1
tp250
g17
I00
S'\xab\xaa\xaa\xaa\xaa\xca\xed?'
p251
tp252
bsg41
I1
sg42
g246
sg43
S'RN_1_cheese_right.png'
p253
sba(i__main__
Corridor
p254
(dp255
g6
g7
(g8
(I0
tp256
g10
tp257
Rp258
(I1
(I1
tp259
g17
I00
S'UUUUU\xd5\xe4?'
p260
tp261
bsg22
g52
sg24
S'4-0-grid_high_contrast'
p262
sg26
S'KataEnd_HC.png'
p263
sg28
I10240
sg29
S'Grid4_0_HC_Left.png'
p264
sg31
I768
sg32
I1024
sg33
S'Kata_ceiling_HC.png'
p265
sg35
g7
(g8
(I0
tp266
g10
tp267
Rp268
(I1
(I1
tp269
g17
I00
S'\xc7q\x1c\xc7q\x9c\xe7?'
p270
tp271
bsg41
I1
sg42
S'Kata_floor_HC.png'
p272
sg43
S'Grid4_0_HC_Right.png'
p273
sba(i__main__
Corridor
p274
(dp275
g6
g7
(g8
(I0
tp276
g10
tp277
Rp278
(I1
(I1
tp279
g17
I00
S'UUUUU\xd5\xe4?'
p280
tp281
bsg22
S'Left'
p282
sg24
S'3-1-grid_high_contrast'
p283
sg26
S'KataEnd_HC.png'
p284
sg28
I10240
sg29
S'Grid3_1_HC_Left.png'
p285
sg31
I768
sg32
I1024
sg33
S'Kata_ceiling_HC.png'
p286
sg35
g7
(g8
(I0
tp287
g10
tp288
Rp289
(I1
(I1
tp290
g17
I00
S'\xc7q\x1c\xc7q\x9c\xe7?'
p291
tp292
bsg41
I1
sg42
S'Kata_floor_HC.png'
p293
sg43
S'Grid3_1_HC_Right.png'
p294
sba(i__main__
Corridor
p295
(dp296
g6
g7
(g8
(I0
tp297
g10
tp298
Rp299
(I1
(I1
tp300
g17
I00
S'\xab\xaa\xaa\xaa\xaa\n\xea?'
p301
tp302
bsg22
g282
sg24
S'1-3-grid_high_contrast'
p303
sg26
S'KataEnd_HC.png'
p304
sg28
I10240
sg29
S'Grid1_3_HC_Left.png'
p305
sg31
I768
sg32
I1024
sg33
S'Kata_ceiling_HC.png'
p306
sg35
g7
(g8
(I0
tp307
g10
tp308
Rp309
(I1
(I1
tp310
g17
I00
S'\x1d\xc7q\x1c\xc7\xd1\xec?'
p311
tp312
bsg41
I1
sg42
S'Kata_floor_HC.png'
p313
sg43
S'Grid1_3_HC_Right.png'
p314
sba(i__main__
Corridor
p315
(dp316
g6
g7
(g8
(I0
tp317
g10
tp318
Rp319
(I1
(I1
tp320
g17
I00
S'\xab\xaa\xaa\xaa\xaa\n\xea?'
p321
tp322
bsg22
g52
sg24
S'0-4-grid_high_contrast'
p323
sg26
S'KataEnd_HC.png'
p324
sg28
I10240
sg29
S'Grid0_4_HC_Left.png'
p325
sg31
I768
sg32
I1024
sg33
S'Kata_ceiling_HC.png'
p326
sg35
g7
(g8
(I0
tp327
g10
tp328
Rp329
(I1
(I1
tp330
g17
I00
S'\x1d\xc7q\x1c\xc7\xd1\xec?'
p331
tp332
bsg41
I1
sg42
S'Kata_floor_HC.png'
p333
sg43
S'Grid0_4_HC_Right.png'
p334
sba(i__main__
Corridor
p335
(dp336
g6
g7
(g8
(I0
tp337
g10
tp338
Rp339
(I1
(I1
tp340
g17
I00
S'UUUUU\xd5\xe4?'
p341
tp342
bsg22
g52
sg24
S'4-0-grid_mid_contrast'
p343
sg26
S'KataEnd_MC.png'
p344
sg28
I10240
sg29
S'Grid4_0_MC_Left.png'
p345
sg31
I768
sg32
I1024
sg33
S'Kata_ceiling_MC.png'
p346
sg35
g7
(g8
(I0
tp347
g10
tp348
Rp349
(I1
(I1
tp350
g17
I00
S'\xc7q\x1c\xc7q\x9c\xe7?'
p351
tp352
bsg41
I1
sg42
S'Kata_floor_MC.png'
p353
sg43
S'Grid4_0_MC_Right.png'
p354
sba(i__main__
Corridor
p355
(dp356
g6
g7
(g8
(I0
tp357
g10
tp358
Rp359
(I1
(I1
tp360
g17
I00
S'UUUUU\xd5\xe4?'
p361
tp362
bsg22
g282
sg24
S'3-1-grid_mid_contrast'
p363
sg26
S'KataEnd_MC.png'
p364
sg28
I10240
sg29
S'Grid3_1_MC_Left.png'
p365
sg31
I768
sg32
I1024
sg33
S'Kata_ceiling_MC.png'
p366
sg35
g7
(g8
(I0
tp367
g10
tp368
Rp369
(I1
(I1
tp370
g17
I00
S'\xc7q\x1c\xc7q\x9c\xe7?'
p371
tp372
bsg41
I1
sg42
S'Kata_floor_MC.png'
p373
sg43
S'Grid3_1_MC_Right.png'
p374
sba(i__main__
Corridor
p375
(dp376
g6
g7
(g8
(I0
tp377
g10
tp378
Rp379
(I1
(I1
tp380
g17
I00
S'\xab\xaa\xaa\xaa\xaa\n\xea?'
p381
tp382
bsg22
g282
sg24
S'1-3-grid_mid_contrast'
p383
sg26
S'KataEnd_MC.png'
p384
sg28
I10240
sg29
S'Grid1_3_MC_Left.png'
p385
sg31
I768
sg32
I1024
sg33
S'Kata_ceiling_MC.png'
p386
sg35
g7
(g8
(I0
tp387
g10
tp388
Rp389
(I1
(I1
tp390
g17
I00
S'\x1d\xc7q\x1c\xc7\xd1\xec?'
p391
tp392
bsg41
I1
sg42
S'Kata_floor_MC.png'
p393
sg43
S'Grid1_3_MC_Right.png'
p394
sba(i__main__
Corridor
p395
(dp396
g6
g7
(g8
(I0
tp397
g10
tp398
Rp399
(I1
(I1
tp400
g17
I00
S'\xab\xaa\xaa\xaa\xaa\n\xea?'
p401
tp402
bsg22
g52
sg24
S'0-4-grid_mid_contrast'
p403
sg26
S'KataEnd_MC.png'
p404
sg28
I10240
sg29
S'Grid0_4_MC_Left.png'
p405
sg31
I768
sg32
I1024
sg33
S'Kata_ceiling_MC.png'
p406
sg35
g7
(g8
(I0
tp407
g10
tp408
Rp409
(I1
(I1
tp410
g17
I00
S'\x1d\xc7q\x1c\xc7\xd1\xec?'
p411
tp412
bsg41
I1
sg42
S'Kata_floor_MC.png'
p413
sg43
S'Grid0_4_MC_Right.png'
p414
sba(i__main__
Corridor
p415
(dp416
g6
g7
(g8
(I0
tp417
g10
tp418
Rp419
(I1
(I1
tp420
g17
I00
S'UUUUU\xd5\xe4?'
p421
tp422
bsg22
g52
sg24
S'4-0-grid_low_contrast'
p423
sg26
S'KataEnd_LC.png'
p424
sg28
I10240
sg29
S'Grid4_0_LC_Left.png'
p425
sg31
I768
sg32
I1024
sg33
S'Kata_ceiling_LC.png'
p426
sg35
g7
(g8
(I0
tp427
g10
tp428
Rp429
(I1
(I1
tp430
g17
I00
S'\xc7q\x1c\xc7q\x9c\xe7?'
p431
tp432
bsg41
I1
sg42
S'Kata_floor_LC.png'
p433
sg43
S'Grid4_0_LC_Right.png'
p434
sba(i__main__
Corridor
p435
(dp436
g6
g7
(g8
(I0
tp437
g10
tp438
Rp439
(I1
(I1
tp440
g17
I00
S'UUUUU\xd5\xe4?'
p441
tp442
bsg22
g282
sg24
S'3-1-grid_low_contrast'
p443
sg26
S'KataEnd_LC.png'
p444
sg28
I10240
sg29
S'Grid3_1_LC_Left.png'
p445
sg31
I768
sg32
I1024
sg33
S'Kata_ceiling_LC.png'
p446
sg35
g7
(g8
(I0
tp447
g10
tp448
Rp449
(I1
(I1
tp450
g17
I00
S'\xc7q\x1c\xc7q\x9c\xe7?'
p451
tp452
bsg41
I1
sg42
S'Kata_floor_LC.png'
p453
sg43
S'Grid3_1_LC_Right.png'
p454
sba(i__main__
Corridor
p455
(dp456
g6
g7
(g8
(I0
tp457
g10
tp458
Rp459
(I1
(I1
tp460
g17
I00
S'\xc7q\x1c\xc7q\\\xe1?'
p461
tp462
bsg22
g282
sg24
S'2-2-grid_low_contrast'
p463
sg26
S'KataEnd_LC.png'
p464
sg28
I10240
sg29
S'Grid2_2_LC_Left.png'
p465
sg31
I768
sg32
I1024
sg33
S'Kata_ceiling_LC.png'
p466
sg35
g7
(g8
(I0
tp467
g10
tp468
Rp469
(I1
(I1
tp470
g17
I00
S'9\x8e\xe38\x8e#\xe4?'
p471
tp472
bsg41
I1
sg42
S'Kata_floor_LC.png'
p473
sg43
S'Grid2_2_LC_Right.png'
p474
sba(i__main__
Corridor
p475
(dp476
g6
g7
(g8
(I0
tp477
g10
tp478
Rp479
(I1
(I1
tp480
g17
I00
S'UUUUU\xd5\xe4?'
p481
tp482
bsg22
g282
sg24
S'3-1-grid_low_contrast'
p483
sg26
S'KataEnd_LC.png'
p484
sg28
I10240
sg29
S'Grid3_1_LC_Left.png'
p485
sg31
I768
sg32
I1024
sg33
S'Kata_ceiling_LC.png'
p486
sg35
g7
(g8
(I0
tp487
g10
tp488
Rp489
(I1
(I1
tp490
g17
I00
S'\xc7q\x1c\xc7q\x9c\xe7?'
p491
tp492
bsg41
I1
sg42
S'Kata_floor_LC.png'
p493
sg43
S'Grid3_1_LC_Right.png'
p494
sba(i__main__
Corridor
p495
(dp496
g6
g7
(g8
(I0
tp497
g10
tp498
Rp499
(I1
(I1
tp500
g17
I00
S'\xab\xaa\xaa\xaa\xaa\n\xea?'
p501
tp502
bsg22
g52
sg24
S'0-4-grid_low_contrast'
p503
sg26
S'KataEnd_LC.png'
p504
sg28
I10240
sg29
S'Grid0_4_LC_Left.png'
p505
sg31
I768
sg32
I1024
sg33
S'Kata_ceiling_LC.png'
p506
sg35
g7
(g8
(I0
tp507
g10
tp508
Rp509
(I1
(I1
tp510
g17
I00
S'\x1d\xc7q\x1c\xc7\xd1\xec?'
p511
tp512
bsg41
I1
sg42
S'Kata_floor_LC.png'
p513
sg43
S'Grid0_4_LC_Right.png'
p514
sba(i__main__
Corridor
p515
(dp516
g6
g7
(g8
(I0
tp517
g10
tp518
Rp519
(I1
(I1
tp520
g17
I00
S'\xab\xaa\xaa\xaa\xaa\n\xea?'
p521
tp522
bsg22
g282
sg24
S'polka_low_contrast'
p523
sg26
S'KataEnd_LC.png'
p524
sg28
I10240
sg29
S'polka_LC_Left.png'
p525
sg31
I768
sg32
I1024
sg33
S'Kata_ceiling_LC.png'
p526
sg35
g7
(g8
(I0
tp527
g10
tp528
Rp529
(I1
(I1
tp530
g17
I00
S'\xab\xaa\xaa\xaa\xaa"\xee?'
p531
tp532
bsg41
I1
sg42
S'Kata_floor_LC.png'
p533
sg43
S'polka_LC_Right.png'
p534
sbasS'image_path'
p535
S'./'
p536
sg24
S'morphing'
p537
sS'num_VRs'
p538
I26
sb.