(i__main__
Corridor_list
p0
(dp1
S'corridors'
p2
(lp3
(i__main__
Corridor
p4
(dp5
S'reward_zone_starts'
p6
cnumpy.core.multiarray
_reconstruct
p7
(cnumpy
ndarray
p8
(I0
tp9
S'b'
p10
tp11
Rp12
(I1
(I0
tp13
cnumpy
dtype
p14
(S'f8'
p15
I0
I1
tp16
Rp17
(I3
S'<'
p18
NNNI-1
I-1
I0
tp19
bI00
S''
p20
tp21
bsS'reward'
p22
S'None'
p23
sS'name'
p24
S'grey'
p25
sS'end_image'
p26
S'grey_end_wall.png'
p27
sS'length'
p28
I7168
sS'left_image'
p29
S'grey_wall.png'
p30
sS'height'
p31
I768
sS'width'
p32
I1024
sS'ceiling_image'
p33
S'grey_floor_ceiling.png'
p34
sS'reward_zone_ends'
p35
g7
(g8
(I0
tp36
g10
tp37
Rp38
(I1
(I0
tp39
g17
I00
g20
tp40
bsS'N_zones'
p41
I0
sS'floor_image'
p42
g34
sS'right_image'
p43
g30
sba(i__main__
Corridor
p44
(dp45
g6
g7
(g8
(I0
tp46
g10
tp47
Rp48
(I1
(I9
tp49
g17
I00
S'UUUUUU\x97?UUUUU\x15\xc1?\x00\x00\x00\x00\x00@\xcf?UUUUU\xb5\xd6?\xab\xaa\xaa\xaa\xaa\xca\xdd?\x00\x00\x00\x00\x00p\xe2?\xab\xaa\xaa\xaa\xaa\xfa\xe5?UUUUU\x85\xe9?\x00\x00\x00\x00\x00\x10\xed?'
p50
tp51
bsg22
S'Right'
p52
sg24
S'9_cheese'
p53
sg26
S'black_end_wall.png'
p54
sg28
I7168
sg29
S'RN_9_cheese_left.png'
p55
sg31
I768
sg32
I1024
sg33
S'floor_ceiling.png'
p56
sg35
g7
(g8
(I0
tp57
g10
tp58
Rp59
(I1
(I9
tp60
g17
I00
S'\xaa\xaa\xaa\xaa\xaaj\xb9?\x00\x00\x00\x00\x00\xe0\xca?UUUUU\x85\xd4?\xaa\xaa\xaa\xaa\xaa\x9a\xdb?\x00\x00\x00\x00\x00X\xe1?\xab\xaa\xaa\xaa\xaa\xe2\xe4?VUUUUm\xe8?\x00\x00\x00\x00\x00\xf8\xeb?\xab\xaa\xaa\xaa\xaa\x82\xef?'
p61
tp62
bsg41
I9
sg42
g56
sg43
S'RN_9_cheese_right.png'
p63
sba(i__main__
Corridor
p64
(dp65
g6
g7
(g8
(I0
tp66
g10
tp67
Rp68
(I1
(I7
tp69
g17
I00
S'UUUUUU\x97?\x00\x00\x00\x00\x00\xc0\xc7?UUUUU5\xd4?\xab\xaa\xaa\xaa\xaa\x8a\xdc?UUUUU\x85\xe4?\x00\x00\x00\x00\x00\xb0\xe8?UUUUU\xa5\xec?'
p70
tp71
bsg22
g52
sg24
S'7_cheese_a'
p72
sg26
g54
sg28
I7168
sg29
S'RN_7_cheese_left_a.png'
p73
sg31
I768
sg32
I1024
sg33
g56
sg35
g7
(g8
(I0
tp74
g10
tp75
Rp76
(I1
(I7
tp77
g17
I00
S'\xaa\xaa\xaa\xaa\xaaj\xb9?UUUUU\xc5\xd0?\xaa\xaa\xaa\xaa\xaa\x1a\xd9?\x00\x00\x00\x00\x00\xb8\xe0?\x00\x00\x00\x00\x00\xf8\xe6?\xab\xaa\xaa\xaa\xaa"\xeb?\x00\x00\x00\x00\x00\x18\xef?'
p78
tp79
bsg41
I7
sg42
g56
sg43
S'RN_7_cheese_right_a.png'
p80
sba(i__main__
Corridor
p81
(dp82
g6
g7
(g8
(I0
tp83
g10
tp84
Rp85
(I1
(I7
tp86
g17
I00
S'UUUUUU\x97?UUUUU\x95\xc3?\x00\x00\x00\x00\x00 \xd2?UUUUUu\xda?UUUUUe\xe1?\x00\x00\x00\x00\x00\x90\xe5?UUUUU\xa5\xec?'
p87
tp88
bsg22
g52
sg24
S'7_cheese_b'
p89
sg26
g54
sg28
I7168
sg29
S'RN_7_cheese_left_b.png'
p90
sg31
I768
sg32
I1024
sg33
g56
sg35
g7
(g8
(I0
tp91
g10
tp92
Rp93
(I1
(I7
tp94
g17
I00
S'\xaa\xaa\xaa\xaa\xaaj\xb9?\x00\x00\x00\x00\x00`\xcd?UUUUU\x05\xd7?\xaa\xaa\xaa\xaa\xaaZ\xdf?\x00\x00\x00\x00\x00\xd8\xe3?\xab\xaa\xaa\xaa\xaa\x02\xe8?\x00\x00\x00\x00\x00\x18\xef?'
p95
tp96
bsg41
I7
sg42
g56
sg43
S'RN_7_cheese_right_b.png'
p97
sba(i__main__
Corridor
p98
(dp99
g6
g7
(g8
(I0
tp100
g10
tp101
Rp102
(I1
(I7
tp103
g17
I00
S'UUUUUU\xac?\xab\xaa\xaa\xaa\xaa\n\xd0?\x00\x00\x00\x00\x00`\xd8?\x00\x00\x00\x00\x00\xa8\xe1?UUUUUM\xe5?\xab\xaa\xaa\xaa\xaa\xf2\xe8?UUUUU\xa5\xec?'
p104
tp105
bsg22
g52
sg24
S'7_cheese_c'
p106
sg26
g54
sg28
I7168
sg29
S'RN_7_cheese_left_c.png'
p107
sg31
I768
sg32
I1024
sg33
g56
sg35
g7
(g8
(I0
tp108
g10
tp109
Rp110
(I1
(I7
tp111
g17
I00
S'\x00\x00\x00\x00\x00\xe0\xc0?\x00\x00\x00\x00\x00\xf0\xd4?UUUUUE\xdd?\xab\xaa\xaa\xaa\xaa\x1a\xe4?\x00\x00\x00\x00\x00\xc0\xe7?VUUUUe\xeb?\x00\x00\x00\x00\x00\x18\xef?'
p112
tp113
bsg41
I7
sg42
g56
sg43
S'RN_7_cheese_right_c.png'
p114
sba(i__main__
Corridor
p115
(dp116
g6
g7
(g8
(I0
tp117
g10
tp118
Rp119
(I1
(I5
tp120
g17
I00
S'UUUUU\x95\xc3?\x00\x00\x00\x00\x00 \xd2?UUUUUu\xda?\x00\x00\x00\x00\x00\x90\xe5?UUUUU\xa5\xec?'
p121
tp122
bsg22
g52
sg24
S'5_cheese_a'
p123
sg26
g54
sg28
I7168
sg29
S'RN_5_cheese_left_a.png'
p124
sg31
I768
sg32
I1024
sg33
g56
sg35
g7
(g8
(I0
tp125
g10
tp126
Rp127
(I1
(I5
tp128
g17
I00
S'\x00\x00\x00\x00\x00`\xcd?UUUUU\x05\xd7?\xaa\xaa\xaa\xaa\xaaZ\xdf?\xab\xaa\xaa\xaa\xaa\x02\xe8?\x00\x00\x00\x00\x00\x18\xef?'
p129
tp130
bsg41
I5
sg42
g56
sg43
S'RN_5_cheese_right_a.png'
p131
sba(i__main__
Corridor
p132
(dp133
g6
g7
(g8
(I0
tp134
g10
tp135
Rp136
(I1
(I5
tp137
g17
I00
S'UUUUUU\x97?\xab\xaa\xaa\xaa\xaa\xea\xcb?\xab\xaa\xaa\xaa\xaaZ\xe0?\xab\xaa\xaa\xaa\xaa*\xe8?UUUUU\xa5\xec?'
p138
tp139
bsg22
g52
sg24
S'5_cheese_b'
p140
sg26
g54
sg28
I7168
sg29
S'RN_5_cheese_left_b.png'
p141
sg31
I768
sg32
I1024
sg33
g56
sg35
g7
(g8
(I0
tp142
g10
tp143
Rp144
(I1
(I5
tp145
g17
I00
S'\xaa\xaa\xaa\xaa\xaaj\xb9?\xab\xaa\xaa\xaa\xaa\xda\xd2?VUUUU\xcd\xe2?VUUUU\x9d\xea?\x00\x00\x00\x00\x00\x18\xef?'
p146
tp147
bsg41
I5
sg42
g56
sg43
S'RN_5_cheese_right_b.png'
p148
sba(i__main__
Corridor
p149
(dp150
g6
g7
(g8
(I0
tp151
g10
tp152
Rp153
(I1
(I5
tp154
g17
I00
S'\x00\x00\x00\x00\x00\xc0\xc7?\xab\xaa\xaa\xaa\xaa\x8a\xdc?UUUUU\x85\xe4?\x00\x00\x00\x00\x00\xb0\xe8?UUUUU\xa5\xec?'
p155
tp156
bsg22
g52
sg24
S'5_cheese_c'
p157
sg26
g54
sg28
I7168
sg29
S'RN_5_cheese_left_c.png'
p158
sg31
I768
sg32
I1024
sg33
g56
sg35
g7
(g8
(I0
tp159
g10
tp160
Rp161
(I1
(I5
tp162
g17
I00
S'UUUUU\xc5\xd0?\x00\x00\x00\x00\x00\xb8\xe0?\x00\x00\x00\x00\x00\xf8\xe6?\xab\xaa\xaa\xaa\xaa"\xeb?\x00\x00\x00\x00\x00\x18\xef?'
p163
tp164
bsg41
I5
sg42
g56
sg43
S'RN_5_cheese_right_c.png'
p165
sba(i__main__
Corridor
p166
(dp167
g6
g7
(g8
(I0
tp168
g10
tp169
Rp170
(I1
(I3
tp171
g17
I00
S'\x00\x00\x00\x00\x00\xc0\xc7?\xab\xaa\xaa\xaa\xaaJ\xd6?\x00\x00\x00\x00\x00X\xeb?'
p172
tp173
bsg22
g52
sg24
S'3_cheese_a'
p174
sg26
g54
sg28
I7168
sg29
S'RN_3_cheese_left_a.png'
p175
sg31
I768
sg32
I1024
sg33
g56
sg35
g7
(g8
(I0
tp176
g10
tp177
Rp178
(I1
(I3
tp179
g17
I00
S'UUUUU\xc5\xd0?\x00\x00\x00\x00\x000\xdb?\xab\xaa\xaa\xaa\xaa\xca\xed?'
p180
tp181
bsg41
I3
sg42
g56
sg43
S'RN_3_cheese_right_a.png'
p182
sba(i__main__
Corridor
p183
(dp184
g6
g7
(g8
(I0
tp185
g10
tp186
Rp187
(I1
(I3
tp188
g17
I00
S'UUUUU\x95\xc3?UUUUU\xf5\xe2?\x00\x00\x00\x00\x00X\xeb?'
p189
tp190
bsg22
g52
sg24
S'3_cheese_b'
p191
sg26
g54
sg28
I7168
sg29
S'RN_3_cheese_left_b.png'
p192
sg31
I768
sg32
I1024
sg33
g56
sg35
g7
(g8
(I0
tp193
g10
tp194
Rp195
(I1
(I3
tp196
g17
I00
S'\x00\x00\x00\x00\x00`\xcd?\x00\x00\x00\x00\x00h\xe5?\xab\xaa\xaa\xaa\xaa\xca\xed?'
p197
tp198
bsg41
I3
sg42
g56
sg43
S'RN_3_cheese_right_b.png'
p199
sba(i__main__
Corridor
p200
(dp201
g6
g7
(g8
(I0
tp202
g10
tp203
Rp204
(I1
(I3
tp205
g17
I00
S'\x00\x00\x00\x00\x00 \xd2?\x00\x00\x00\x00\x00\x90\xe5?\x00\x00\x00\x00\x00X\xeb?'
p206
tp207
bsg22
g52
sg24
S'3_cheese_c'
p208
sg26
g54
sg28
I7168
sg29
S'RN_3_cheese_left_c.png'
p209
sg31
I768
sg32
I1024
sg33
g56
sg35
g7
(g8
(I0
tp210
g10
tp211
Rp212
(I1
(I3
tp213
g17
I00
S'UUUUU\x05\xd7?\xab\xaa\xaa\xaa\xaa\x02\xe8?\xab\xaa\xaa\xaa\xaa\xca\xed?'
p214
tp215
bsg41
I3
sg42
g56
sg43
S'RN_3_cheese_right_c.png'
p216
sba(i__main__
Corridor
p217
(dp218
g6
g7
(g8
(I0
tp219
g10
tp220
Rp221
(I1
(I1
tp222
g17
I00
S'\x00\x00\x00\x00\x00X\xeb?'
p223
tp224
bsg22
g52
sg24
S'1_cheese'
p225
sg26
g54
sg28
I7168
sg29
S'RN_1_cheese_left_drop.png'
p226
sg31
I768
sg32
I1024
sg33
g56
sg35
g7
(g8
(I0
tp227
g10
tp228
Rp229
(I1
(I1
tp230
g17
I00
S'\xab\xaa\xaa\xaa\xaa\xca\xed?'
p231
tp232
bsg41
I1
sg42
g56
sg43
S'RN_1_cheese_right_drop.png'
p233
sba(i__main__
Corridor
p234
(dp235
g6
g7
(g8
(I0
tp236
g10
tp237
Rp238
(I1
(I1
tp239
g17
I00
S'\xab\xaa\xaa\xaa\xaa\n\xea?'
p240
tp241
bsg22
g52
sg24
S'leaf+drops'
p242
sg26
S'mAEnd.png'
p243
sg28
I10240
sg29
S'LongLeftA_drops.png'
p244
sg31
I768
sg32
I1024
sg33
S'Long_ceiling.png'
p245
sg35
g7
(g8
(I0
tp246
g10
tp247
Rp248
(I1
(I1
tp249
g17
I00
S'\xe48\x8e\xe38n\xeb?'
p250
tp251
bsg41
I1
sg42
S'Long_floorA.png'
p252
sg43
S'LongRightA_drops.png'
p253
sba(i__main__
Corridor
p254
(dp255
g6
g7
(g8
(I0
tp256
g10
tp257
Rp258
(I1
(I1
tp259
g17
I00
S'\x1c\xc7q\x1c\xc7\xf1\xdf?'
p260
tp261
bsg22
g52
sg24
S'people+drops'
p262
sg26
S'mBEnd.png'
p263
sg28
I10240
sg29
S'LongLeftB_drops.png'
p264
sg31
I768
sg32
I1024
sg33
g245
sg35
g7
(g8
(I0
tp265
g10
tp266
Rp267
(I1
(I1
tp268
g17
I00
S'\xc7q\x1c\xc7q\\\xe1?'
p269
tp270
bsg41
I1
sg42
S'Long_floorB.png'
p271
sg43
S'LongRightB_drops.png'
p272
sba(i__main__
Corridor
p273
(dp274
g6
g7
(g8
(I0
tp275
g10
tp276
Rp277
(I1
(I1
tp278
g17
I00
S'\xab\xaa\xaa\xaa\xaa\n\xea?'
p279
tp280
bsg22
g52
sg24
S'leaf'
p281
sg26
g243
sg28
I10240
sg29
S'LongLeftA.png'
p282
sg31
I768
sg32
I1024
sg33
g245
sg35
g7
(g8
(I0
tp283
g10
tp284
Rp285
(I1
(I1
tp286
g17
I00
S'\xe48\x8e\xe38n\xeb?'
p287
tp288
bsg41
I1
sg42
g252
sg43
S'LongRightA.png'
p289
sba(i__main__
Corridor
p290
(dp291
g6
g7
(g8
(I0
tp292
g10
tp293
Rp294
(I1
(I1
tp295
g17
I00
S'\x1c\xc7q\x1c\xc7\xf1\xdf?'
p296
tp297
bsg22
g52
sg24
S'people'
p298
sg26
g263
sg28
I10240
sg29
S'LongLeftB.png'
p299
sg31
I768
sg32
I1024
sg33
g245
sg35
g7
(g8
(I0
tp300
g10
tp301
Rp302
(I1
(I1
tp303
g17
I00
S'\xc7q\x1c\xc7q\\\xe1?'
p304
tp305
bsg41
I1
sg42
g271
sg43
S'LongRightB.png'
p306
sba(i__main__
Corridor
p307
(dp308
g6
g7
(g8
(I0
tp309
g10
tp310
Rp311
(I1
(I1
tp312
g17
I00
S'\x1c\xc7q\x1c\xc7\xf1\xdf?'
p313
tp314
bsg22
g52
sg24
S'people2'
p315
sg26
g263
sg28
I10240
sg29
g299
sg31
I768
sg32
I1024
sg33
g245
sg35
g7
(g8
(I0
tp316
g10
tp317
Rp318
(I1
(I1
tp319
g17
I00
S'\xc7q\x1c\xc7q\\\xe1?'
p320
tp321
bsg41
I1
sg42
g271
sg43
g306
sba(i__main__
Corridor
p322
(dp323
g6
g7
(g8
(I0
tp324
g10
tp325
Rp326
(I1
(I1
tp327
g17
I00
S'\xe48\x8e\xe38.\xe5?'
p328
tp329
bsg22
g52
sg24
S'green people'
p330
sg26
S'mCEnd.png'
p331
sg28
I10240
sg29
S'LongLeftC.png'
p332
sg31
I768
sg32
I1024
sg33
g245
sg35
g7
(g8
(I0
tp333
g10
tp334
Rp335
(I1
(I1
tp336
g17
I00
S'\x1d\xc7q\x1c\xc7\x91\xe6?'
p337
tp338
bsg41
I1
sg42
S'Long_floorC.png'
p339
sg43
S'LongRightC.png'
p340
sba(i__main__
Corridor
p341
(dp342
g6
g7
(g8
(I0
tp343
g10
tp344
Rp345
(I1
(I1
tp346
g17
I00
S'\xab\xaa\xaa\xaa\xaa\n\xea?'
p347
tp348
bsg22
g52
sg24
S'leaf2'
p349
sg26
g243
sg28
I10240
sg29
g282
sg31
I768
sg32
I1024
sg33
g245
sg35
g7
(g8
(I0
tp350
g10
tp351
Rp352
(I1
(I1
tp353
g17
I00
S'\xe48\x8e\xe38n\xeb?'
p354
tp355
bsg41
I1
sg42
g252
sg43
g289
sbasS'image_path'
p356
S'./'
p357
sg24
S'NearFarLong'
p358
sS'num_VRs'
p359
I19
sb.