(i__main__
Corridor_list
p0
(dp1
S'corridors'
p2
(lp3
(i__main__
Corridor
p4
(dp5
S'reward_zone_starts'
p6
cnumpy.core.multiarray
_reconstruct
p7
(cnumpy
ndarray
p8
(I0
tp9
S'b'
p10
tp11
Rp12
(I1
(I0
tp13
cnumpy
dtype
p14
(S'f8'
p15
I0
I1
tp16
Rp17
(I3
S'<'
p18
NNNI-1
I-1
I0
tp19
bI00
S''
p20
tp21
bsS'reward'
p22
S'None'
p23
sS'name'
p24
S'grey'
p25
sS'end_image'
p26
S'grey_end_wall.png'
p27
sS'length'
p28
I7168
sS'left_image'
p29
S'grey_wall.png'
p30
sS'height'
p31
I768
sS'width'
p32
I1024
sS'ceiling_image'
p33
S'grey_floor_ceiling.png'
p34
sS'reward_zone_ends'
p35
g7
(g8
(I0
tp36
g10
tp37
Rp38
(I1
(I0
tp39
g17
I00
g20
tp40
bsS'N_zones'
p41
I0
sS'floor_image'
p42
g34
sS'right_image'
p43
g30
sba(i__main__
Corridor
p44
(dp45
g6
g7
(g8
(I0
tp46
g10
tp47
Rp48
(I1
(I12
tp49
g17
I00
S'\x00\x00\x00\x00\x00\x00\x00\x00UUUUU\xd5\xb4?UUUUU\xd5\xc4?\x00\x00\x00\x00\x00@\xcf?UUUUU\xd5\xd4?\xab\xaa\xaa\xaa\xaa\n\xda?\x00\x00\x00\x00\x00@\xdf?\xab\xaa\xaa\xaa\xaa:\xe2?UUUUU\xd5\xe4?\x00\x00\x00\x00\x00p\xe7?\xab\xaa\xaa\xaa\xaa\n\xea?UUUUU\xa5\xec?'
p50
tp51
bsg22
S'Right'
p52
sg24
S'all_sine'
p53
sg26
S'mAEnd.png'
p54
sg28
I7168
sg29
S'mABd0LeftRightcorridor.png'
p55
sg31
I768
sg32
I1024
sg33
S'floor_ceiling.png'
p56
sg35
g7
(g8
(I0
tp57
g10
tp58
Rp59
(I1
(I12
tp60
g17
I00
S'\x00\x00\x00\x00\x00\x00\xb4?\xaa\xaa\xaa\xaa\xaaj\xc4?UUUUU\xd5\xce?\x00\x00\x00\x00\x00\xa0\xd4?UUUUU\xd5\xd9?\xab\xaa\xaa\xaa\xaa\n\xdf?\x00\x00\x00\x00\x00 \xe2?\xab\xaa\xaa\xaa\xaa\xba\xe4?UUUUUU\xe7?\x00\x00\x00\x00\x00\xf0\xe9?\xab\xaa\xaa\xaa\xaa\x8a\xec?UUUUU%\xef?'
p61
tp62
bsg41
I12
sg42
S'mAFloor.png'
p63
sg43
g55
sba(i__main__
Corridor
p64
(dp65
g6
g7
(g8
(I0
tp66
g10
tp67
Rp68
(I1
(I12
tp69
g17
I00
S'\x00\x00\x00\x00\x00\x00\x00\x00UUUUU\xd5\xb4?UUUUU\xd5\xc4?\x00\x00\x00\x00\x00@\xcf?UUUUU\xd5\xd4?\xab\xaa\xaa\xaa\xaa\n\xda?\x00\x00\x00\x00\x00@\xdf?\xab\xaa\xaa\xaa\xaa:\xe2?UUUUU\xd5\xe4?\x00\x00\x00\x00\x00p\xe7?\xab\xaa\xaa\xaa\xaa\n\xea?UUUUU\xa5\xec?'
p70
tp71
bsg22
g52
sg24
S'all_square'
p72
sg26
S'mBEnd.png'
p73
sg28
I7168
sg29
S'mABd0LeftRightcorridor.png'
p74
sg31
I768
sg32
I1024
sg33
S'floor_ceiling.png'
p75
sg35
g7
(g8
(I0
tp76
g10
tp77
Rp78
(I1
(I12
tp79
g17
I00
S'\x00\x00\x00\x00\x00\x00\xb4?\xaa\xaa\xaa\xaa\xaaj\xc4?UUUUU\xd5\xce?\x00\x00\x00\x00\x00\xa0\xd4?UUUUU\xd5\xd9?\xab\xaa\xaa\xaa\xaa\n\xdf?\x00\x00\x00\x00\x00 \xe2?\xab\xaa\xaa\xaa\xaa\xba\xe4?UUUUUU\xe7?\x00\x00\x00\x00\x00\xf0\xe9?\xab\xaa\xaa\xaa\xaa\x8a\xec?UUUUU%\xef?'
p80
tp81
bsg41
I12
sg42
S'mBFloor.png'
p82
sg43
g74
sba(i__main__
Corridor
p83
(dp84
g6
g7
(g8
(I0
tp85
g10
tp86
Rp87
(I1
(I1
tp88
g17
I00
S'\x1c\xc7q\x1c\xc7\x91\xe6?'
p89
tp90
bsg22
g52
sg24
S'leaf'
p91
sg26
S'mAEnd.png'
p92
sg28
I10240
sg29
S'LongLeftA.png'
p93
sg31
I768
sg32
I1024
sg33
S'Long_floor.png'
p94
sg35
g7
(g8
(I0
tp95
g10
tp96
Rp97
(I1
(I1
tp98
g17
I00
S'\x1c\xc7q\x1c\xc7\xa9\xea?'
p99
tp100
bsg41
I1
sg42
g94
sg43
S'LongRightA.png'
p101
sba(i__main__
Corridor
p102
(dp103
g6
g7
(g8
(I0
tp104
g10
tp105
Rp106
(I1
(I1
tp107
g17
I00
S'UUUUU5\xee?'
p108
tp109
bsg22
g52
sg24
S'people'
p110
sg26
S'mBEnd.png'
p111
sg28
I10240
sg29
S'LongLeftB.png'
p112
sg31
I768
sg32
I1024
sg33
S'Long_floor.png'
p113
sg35
g7
(g8
(I0
tp114
g10
tp115
Rp116
(I1
(I1
tp117
g17
I00
S'\x00\x00\x00\x00\x00\x00\xf0?'
p118
tp119
bsg41
I1
sg42
g113
sg43
S'LongRightB.png'
p120
sba(i__main__
Corridor
p121
(dp122
g6
g7
(g8
(I0
tp123
g10
tp124
Rp125
(I1
(I1
tp126
g17
I00
S'\x1c\xc7q\x1c\xc7\x91\xe6?'
p127
tp128
bsg22
g52
sg24
S'leaf2'
p129
sg26
S'mAEnd.png'
p130
sg28
I10240
sg29
S'LongLeftA.png'
p131
sg31
I768
sg32
I1024
sg33
S'Long_floor.png'
p132
sg35
g7
(g8
(I0
tp133
g10
tp134
Rp135
(I1
(I1
tp136
g17
I00
S'\x1c\xc7q\x1c\xc7\xa9\xea?'
p137
tp138
bsg41
I1
sg42
g132
sg43
S'LongRightA.png'
p139
sba(i__main__
Corridor
p140
(dp141
g6
g7
(g8
(I0
tp142
g10
tp143
Rp144
(I1
(I1
tp145
g17
I00
S'UUUUU5\xee?'
p146
tp147
bsg22
g52
sg24
S'people2'
p148
sg26
S'mBEnd.png'
p149
sg28
I10240
sg29
S'LongLeftB.png'
p150
sg31
I768
sg32
I1024
sg33
S'Long_floor.png'
p151
sg35
g7
(g8
(I0
tp152
g10
tp153
Rp154
(I1
(I1
tp155
g17
I00
S'\x00\x00\x00\x00\x00\x00\xf0?'
p156
tp157
bsg41
I1
sg42
g151
sg43
S'LongRightB.png'
p158
sba(i__main__
Corridor
p159
(dp160
g6
g7
(g8
(I0
tp161
g10
tp162
Rp163
(I1
(I1
tp164
g17
I00
S'9\x8e\xe38\x8ec\xea?'
p165
tp166
bsg22
g52
sg24
S'green people'
p167
sg26
S'mCEnd.png'
p168
sg28
I10240
sg29
S'LongLeftC.png'
p169
sg31
I768
sg32
I1024
sg33
S'Long_floor.png'
p170
sg35
g7
(g8
(I0
tp171
g10
tp172
Rp173
(I1
(I1
tp174
g17
I00
S'9\x8e\xe38\x8e{\xee?'
p175
tp176
bsg41
I1
sg42
g170
sg43
S'LongRightC.png'
p177
sbasS'image_path'
p178
S'./'
p179
sg24
S'NearFarLong'
p180
sS'num_VRs'
p181
I8
sb.