(i__main__
Stage_collection
p0
(dp1
S'stages'
p2
(lp3
(i__main__
Stage
p4
(dp5
S'corridors'
p6
(lp7
I0
asS'N_corridors'
p8
I1
sS'name'
p9
S'pretrain'
p10
sS'next_stage'
p11
(lp12
I1
asS'level'
p13
S'lick&run'
p14
sS'random'
p15
S'pseudo'
p16
sS'rule'
p17
g10
sS'substages'
p18
(lp19
S'a'
p20
asS'condition'
p21
S'either'
p22
sS'stage'
p23
I0
sba(i__main__
Stage
p24
(dp25
g6
(lp26
I1
aI2
aI3
aI4
aI5
aI6
aI7
aI8
aI9
aI10
aI11
asg8
I11
sg9
S'9 -> 1 lick zone'
p27
sg11
(lp28
I2
asg13
S'lick_zone'
p29
sg15
g16
sg17
S'Pavlovian'
p30
sg18
(lp31
I0
aI1
aI1
aI1
aI2
aI2
aI2
aI3
aI3
aI3
aI4
asg21
g22
sg23
I1
sba(i__main__
Stage
p32
(dp33
g6
(lp34
I12
aI13
aI14
aI15
asg8
I4
sg9
S'1_zone'
p35
sg11
(lp36
I3
asg13
S'diff_1'
p37
sg15
g16
sg17
g30
sg18
(lp38
I0
aI0
aI1
aI1
asg21
S'both'
p39
sg23
I2
sba(i__main__
Stage
p40
(dp41
g6
(lp42
I14
aI15
aI16
aI17
aI18
asg8
I5
sg9
g35
sg11
(lp43
I3
asg13
S'diff_2'
p44
sg15
g16
sg17
g30
sg18
(lp45
I0
aI0
aI1
aI1
aI1
asg21
g39
sg23
I3
sbasS'num_stages'
p46
I4
sS'image_path'
p47
S'.'
p48
sg9
S'NearFarLong'
p49
sb.