(i__main__
Corridor_list
p0
(dp1
S'corridors'
p2
(lp3
(i__main__
Corridor
p4
(dp5
S'reward'
p6
S'None'
p7
sS'name'
p8
S'grey'
p9
sS'end_image'
p10
S'grey_end_wall.png'
p11
sS'left_image'
p12
S'grey_wall.png'
p13
sS'reward_zone_starts'
p14
cnumpy.core.multiarray
_reconstruct
p15
(cnumpy
ndarray
p16
(I0
tp17
S'b'
p18
tp19
Rp20
(I1
(I0
tp21
cnumpy
dtype
p22
(S'f8'
p23
I0
I1
tp24
Rp25
(I3
S'<'
p26
NNNI-1
I-1
I0
tp27
bI00
S''
p28
tp29
bsS'ceiling_image'
p30
S'grey_floor_ceiling.png'
p31
sS'reward_zone_ends'
p32
g15
(g16
(I0
tp33
g18
tp34
Rp35
(I1
(I0
tp36
g25
I00
g28
tp37
bsS'N_zones'
p38
I0
sS'floor_image'
p39
g31
sS'right_image'
p40
g13
sba(i__main__
Corridor
p41
(dp42
g6
S'Right'
p43
sg8
S'9_cheese'
p44
sg10
S'black_end_wall.png'
p45
sg12
S'RN_9_cheese_left.png'
p46
sg14
g15
(g16
(I0
tp47
g18
tp48
Rp49
(I1
(I9
tp50
g25
I00
S'\x00\x00\x00\x00\x00\x00\x00\x00UUUUUU\xbc?UUUUUU\xcc?\x00\x00\x00\x00\x00@\xd5?UUUUUU\xdc?UUUUU\xb5\xe1?\x00\x00\x00\x00\x00@\xe5?\xab\xaa\xaa\xaa\xaa\xca\xe8?UUUUUU\xec?'
p51
tp52
bsg30
S'floor_ceiling.png'
p53
sg32
g15
(g16
(I0
tp54
g18
tp55
Rp56
(I1
(I9
tp57
g25
I00
S'UUUUU\x95\xb3?UUUUU\xf5\xc7?\x00\x00\x00\x00\x00\x10\xd3?UUUUU%\xda?UUUUU\x9d\xe0?\x00\x00\x00\x00\x00(\xe4?\xab\xaa\xaa\xaa\xaa\xb2\xe7?VUUUU=\xeb?\x00\x00\x00\x00\x00\xc8\xee?'
p58
tp59
bsg38
I9
sg39
g53
sg40
S'RN_9_cheese_right.png'
p60
sba(i__main__
Corridor
p61
(dp62
g6
g43
sg8
S'7_cheese_a'
p63
sg10
S'black_end_wall.png'
p64
sg12
S'RN_7_cheese_left_a.png'
p65
sg14
g15
(g16
(I0
tp66
g18
tp67
Rp68
(I1
(I7
tp69
g25
I00
S'\x00\x00\x00\x00\x00\x00\x00\x00UUUUU\xd5\xc4?UUUUU5\xd4?\xab\xaa\xaa\xaa\xaa\x8a\xdc?UUUUU\x85\xe4?\x00\x00\x00\x00\x00\xb0\xe8?UUUUU\xa5\xec?'
p70
tp71
bsg30
S'floor_ceiling.png'
p72
sg32
g15
(g16
(I0
tp73
g18
tp74
Rp75
(I1
(I7
tp76
g25
I00
S'UUUUU\x95\xb3?\x00\x00\x00\x00\x00\xa0\xce?\xaa\xaa\xaa\xaa\xaa\x1a\xd9?\x00\x00\x00\x00\x00\xb8\xe0?\x00\x00\x00\x00\x00\xf8\xe6?\xab\xaa\xaa\xaa\xaa"\xeb?\x00\x00\x00\x00\x00\x18\xef?'
p77
tp78
bsg38
I7
sg39
g72
sg40
S'RN_7_cheese_right_a.png'
p79
sba(i__main__
Corridor
p80
(dp81
g6
g43
sg8
S'7_cheese_b'
p82
sg10
S'black_end_wall.png'
p83
sg12
S'RN_7_cheese_left_b.png'
p84
sg14
g15
(g16
(I0
tp85
g18
tp86
Rp87
(I1
(I7
tp88
g25
I00
S'\x00\x00\x00\x00\x00\x00\x00\x00UUUUU\x95\xc3?\x00\x00\x00\x00\x00 \xd2?UUUUUu\xda?UUUUUe\xe1?\x00\x00\x00\x00\x00\x90\xe5?UUUUU\xa5\xec?'
p89
tp90
bsg30
S'floor_ceiling.png'
p91
sg32
g15
(g16
(I0
tp92
g18
tp93
Rp94
(I1
(I7
tp95
g25
I00
S'UUUUU\x95\xb3?\x00\x00\x00\x00\x00`\xcd?UUUUU\x05\xd7?\xaa\xaa\xaa\xaa\xaaZ\xdf?\x00\x00\x00\x00\x00\xd8\xe3?\xab\xaa\xaa\xaa\xaa\x02\xe8?\x00\x00\x00\x00\x00\x18\xef?'
p96
tp97
bsg38
I7
sg39
g91
sg40
S'RN_7_cheese_right_b.png'
p98
sba(i__main__
Corridor
p99
(dp100
g6
g43
sg8
S'7_cheese_c'
p101
sg10
S'black_end_wall.png'
p102
sg12
S'RN_7_cheese_left_c.png'
p103
sg14
g15
(g16
(I0
tp104
g18
tp105
Rp106
(I1
(I7
tp107
g25
I00
S'UUUUUU\xac?\xab\xaa\xaa\xaa\xaa\n\xd0?\x00\x00\x00\x00\x00`\xd8?\x00\x00\x00\x00\x00\xa8\xe1?UUUUUM\xe5?\xab\xaa\xaa\xaa\xaa\xf2\xe8?UUUUU\xa5\xec?'
p108
tp109
bsg30
S'floor_ceiling.png'
p110
sg32
g15
(g16
(I0
tp111
g18
tp112
Rp113
(I1
(I7
tp114
g25
I00
S'\x00\x00\x00\x00\x00\xe0\xc0?\x00\x00\x00\x00\x00\xf0\xd4?UUUUUE\xdd?\xab\xaa\xaa\xaa\xaa\x1a\xe4?\x00\x00\x00\x00\x00\xc0\xe7?VUUUUe\xeb?\x00\x00\x00\x00\x00\x18\xef?'
p115
tp116
bsg38
I7
sg39
g110
sg40
S'RN_7_cheese_right_c.png'
p117
sba(i__main__
Corridor
p118
(dp119
g6
g43
sg8
S'5_cheese_a'
p120
sg10
S'black_end_wall.png'
p121
sg12
S'RN_5_cheese_left_a.png'
p122
sg14
g15
(g16
(I0
tp123
g18
tp124
Rp125
(I1
(I5
tp126
g25
I00
S'UUUUU\x95\xc3?\x00\x00\x00\x00\x00 \xd2?UUUUUu\xda?\x00\x00\x00\x00\x00\x90\xe5?UUUUU\xa5\xec?'
p127
tp128
bsg30
S'floor_ceiling.png'
p129
sg32
g15
(g16
(I0
tp130
g18
tp131
Rp132
(I1
(I5
tp133
g25
I00
S'\x00\x00\x00\x00\x00`\xcd?UUUUU\x05\xd7?\xaa\xaa\xaa\xaa\xaaZ\xdf?\xab\xaa\xaa\xaa\xaa\x02\xe8?\x00\x00\x00\x00\x00\x18\xef?'
p134
tp135
bsg38
I5
sg39
g129
sg40
S'RN_5_cheese_right_a.png'
p136
sba(i__main__
Corridor
p137
(dp138
g6
g43
sg8
S'5_cheese_b'
p139
sg10
S'black_end_wall.png'
p140
sg12
S'RN_5_cheese_left_b.png'
p141
sg14
g15
(g16
(I0
tp142
g18
tp143
Rp144
(I1
(I5
tp145
g25
I00
S'\x00\x00\x00\x00\x00\x00\x00\x00\xab\xaa\xaa\xaa\xaa\xea\xcb?\xab\xaa\xaa\xaa\xaaZ\xe0?\xab\xaa\xaa\xaa\xaa*\xe8?UUUUU\xa5\xec?'
p146
tp147
bsg30
S'floor_ceiling.png'
p148
sg32
g15
(g16
(I0
tp149
g18
tp150
Rp151
(I1
(I5
tp152
g25
I00
S'UUUUU\x95\xb3?\xab\xaa\xaa\xaa\xaa\xda\xd2?VUUUU\xcd\xe2?VUUUU\x9d\xea?\x00\x00\x00\x00\x00\x18\xef?'
p153
tp154
bsg38
I5
sg39
g148
sg40
S'RN_5_cheese_right_b.png'
p155
sba(i__main__
Corridor
p156
(dp157
g6
g43
sg8
S'5_cheese_c'
p158
sg10
S'black_end_wall.png'
p159
sg12
S'RN_5_cheese_left_c.png'
p160
sg14
g15
(g16
(I0
tp161
g18
tp162
Rp163
(I1
(I5
tp164
g25
I00
S'UUUUU\xd5\xc4?\xab\xaa\xaa\xaa\xaa\x8a\xdc?UUUUU\x85\xe4?\x00\x00\x00\x00\x00\xb0\xe8?UUUUU\xa5\xec?'
p165
tp166
bsg30
S'floor_ceiling.png'
p167
sg32
g15
(g16
(I0
tp168
g18
tp169
Rp170
(I1
(I5
tp171
g25
I00
S'\x00\x00\x00\x00\x00\xa0\xce?\x00\x00\x00\x00\x00\xb8\xe0?\x00\x00\x00\x00\x00\xf8\xe6?\xab\xaa\xaa\xaa\xaa"\xeb?\x00\x00\x00\x00\x00\x18\xef?'
p172
tp173
bsg38
I5
sg39
g167
sg40
S'RN_5_cheese_right_c.png'
p174
sba(i__main__
Corridor
p175
(dp176
g6
g43
sg8
S'3_cheese_a'
p177
sg10
S'black_end_wall.png'
p178
sg12
S'RN_3_cheese_left_a.png'
p179
sg14
g15
(g16
(I0
tp180
g18
tp181
Rp182
(I1
(I3
tp183
g25
I00
S'UUUUU\xd5\xc4?\xab\xaa\xaa\xaa\xaaJ\xd6?UUUUU\xa5\xec?'
p184
tp185
bsg30
S'floor_ceiling.png'
p186
sg32
g15
(g16
(I0
tp187
g18
tp188
Rp189
(I1
(I3
tp190
g25
I00
S'\x00\x00\x00\x00\x00\xa0\xce?\x00\x00\x00\x00\x000\xdb?\x00\x00\x00\x00\x00\x18\xef?'
p191
tp192
bsg38
I3
sg39
g186
sg40
S'RN_3_cheese_right_a.png'
p193
sba(i__main__
Corridor
p194
(dp195
g6
g43
sg8
S'3_cheese_b'
p196
sg10
S'black_end_wall.png'
p197
sg12
S'RN_3_cheese_left_b.png'
p198
sg14
g15
(g16
(I0
tp199
g18
tp200
Rp201
(I1
(I3
tp202
g25
I00
S'UUUUU\x95\xc3?UUUUU\xf5\xe2?UUUUU\xa5\xec?'
p203
tp204
bsg30
S'floor_ceiling.png'
p205
sg32
g15
(g16
(I0
tp206
g18
tp207
Rp208
(I1
(I3
tp209
g25
I00
S'\x00\x00\x00\x00\x00`\xcd?\x00\x00\x00\x00\x00h\xe5?\x00\x00\x00\x00\x00\x18\xef?'
p210
tp211
bsg38
I3
sg39
g205
sg40
S'RN_3_cheese_right_b.png'
p212
sba(i__main__
Corridor
p213
(dp214
g6
g43
sg8
S'3_cheese_c'
p215
sg10
S'black_end_wall.png'
p216
sg12
S'RN_3_cheese_left_c.png'
p217
sg14
g15
(g16
(I0
tp218
g18
tp219
Rp220
(I1
(I3
tp221
g25
I00
S'\x00\x00\x00\x00\x00 \xd2?\x00\x00\x00\x00\x00\x90\xe5?UUUUU\xa5\xec?'
p222
tp223
bsg30
S'floor_ceiling.png'
p224
sg32
g15
(g16
(I0
tp225
g18
tp226
Rp227
(I1
(I3
tp228
g25
I00
S'UUUUU\x05\xd7?\xab\xaa\xaa\xaa\xaa\x02\xe8?\x00\x00\x00\x00\x00\x18\xef?'
p229
tp230
bsg38
I3
sg39
g224
sg40
S'RN_3_cheese_right_c.png'
p231
sba(i__main__
Corridor
p232
(dp233
g6
g43
sg8
S'1_cheese'
p234
sg10
S'black_end_wall.png'
p235
sg12
S'RN_1_cheese_left.png'
p236
sg14
g15
(g16
(I0
tp237
g18
tp238
Rp239
(I1
(I1
tp240
g25
I00
S'UUUUU\xa5\xec?'
p241
tp242
bsg30
S'floor_ceiling.png'
p243
sg32
g15
(g16
(I0
tp244
g18
tp245
Rp246
(I1
(I1
tp247
g25
I00
S'\x00\x00\x00\x00\x00\x18\xef?'
p248
tp249
bsg38
I1
sg39
g243
sg40
S'RN_1_cheese_right.png'
p250
sba(i__main__
Corridor
p251
(dp252
g6
g43
sg8
S'green_squared_right'
p253
sg10
S'black_end_wall.png'
p254
sg12
S'RN_wall_squared_green_left_002.png'
p255
sg14
g15
(g16
(I0
tp256
g18
tp257
Rp258
(I1
(I1
tp259
g25
I00
S'UUUUUy\xeb?'
p260
tp261
bsg30
S'floor_ceiling.png'
p262
sg32
g15
(g16
(I0
tp263
g18
tp264
Rp265
(I1
(I1
tp266
g25
I00
S'\x00\x00\x00\x00\x00\xec\xed?'
p267
tp268
bsg38
I1
sg39
g262
sg40
S'RN_wall_squared_green_right_002.png'
p269
sba(i__main__
Corridor
p270
(dp271
g6
g43
sg8
g253
sg10
S'black_end_wall.png'
p272
sg12
S'SR_wall_squared_green_left_001.png'
p273
sg14
g15
(g16
(I0
tp274
g18
tp275
Rp276
(I1
(I1
tp277
g25
I00
S'\xab\xaa\xaa\xaa\xaaB\xe4?'
p278
tp279
bsg30
S'floor_ceiling.png'
p280
sg32
g15
(g16
(I0
tp281
g18
tp282
Rp283
(I1
(I1
tp284
g25
I00
S'VUUUU\xb5\xe6?'
p285
tp286
bsg38
I1
sg39
g280
sg40
S'SR_wall_squared_green_right_001.png'
p287
sba(i__main__
Corridor
p288
(dp289
g6
g43
sg8
S'purple_striped_right'
p290
sg10
S'black_end_wall.png'
p291
sg12
S'RN_wall_striped_purple_left_002.png'
p292
sg14
g15
(g16
(I0
tp293
g18
tp294
Rp295
(I1
(I1
tp296
g25
I00
S'UUUUUy\xeb?'
p297
tp298
bsg30
S'floor_ceiling.png'
p299
sg32
g15
(g16
(I0
tp300
g18
tp301
Rp302
(I1
(I1
tp303
g25
I00
S'\x00\x00\x00\x00\x00\xec\xed?'
p304
tp305
bsg38
I1
sg39
g299
sg40
S'RN_wall_striped_purple_right_002.png'
p306
sba(i__main__
Corridor
p307
(dp308
g6
g43
sg8
g290
sg10
S'black_end_wall.png'
p309
sg12
S'SR_wall_striped_purple_left_001.png'
p310
sg14
g15
(g16
(I0
tp311
g18
tp312
Rp313
(I1
(I1
tp314
g25
I00
S'\x00\x00\x00\x00\x00\xf0\xdb?'
p315
tp316
bsg30
S'floor_ceiling.png'
p317
sg32
g15
(g16
(I0
tp318
g18
tp319
Rp320
(I1
(I1
tp321
g25
I00
S'\xab\xaa\xaa\xaa\xaaj\xe0?'
p322
tp323
bsg38
I1
sg39
g317
sg40
S'SR_wall_striped_purple_right_001.png'
p324
sba(i__main__
Corridor
p325
(dp326
g6
g43
sg8
S'purple_squared_right'
p327
sg10
S'black_end_wall.png'
p328
sg12
S'RN_wall_squared_purple_left_002.png'
p329
sg14
g15
(g16
(I0
tp330
g18
tp331
Rp332
(I1
(I1
tp333
g25
I00
S'UUUUUy\xeb?'
p334
tp335
bsg30
S'floor_ceiling.png'
p336
sg32
g15
(g16
(I0
tp337
g18
tp338
Rp339
(I1
(I1
tp340
g25
I00
S'\x00\x00\x00\x00\x00\xec\xed?'
p341
tp342
bsg38
I1
sg39
g336
sg40
S'RN_wall_squared_purple_right_002.png'
p343
sbasS'image_path'
p344
S'./'
p345
sg8
S'TwoMazes'
p346
sS'num_VRs'
p347
I17
sb.